
RenderDisplay.elf:     file format elf32-avr

Sections:
Idx Name          Size      VMA       LMA       File off  Algn
  0 .text         00000dee  00000000  00000000  00000094  2**1
                  CONTENTS, ALLOC, LOAD, READONLY, CODE
  1 .data         00000420  00800060  00000dee  00000e82  2**0
                  CONTENTS, ALLOC, LOAD, DATA
  2 .bss          00000292  00800480  00800480  000012a2  2**0
                  ALLOC
  3 .comment      00000030  00000000  00000000  000012a2  2**0
                  CONTENTS, READONLY
  4 .note.gnu.avr.deviceinfo 0000003c  00000000  00000000  000012d4  2**2
                  CONTENTS, READONLY
  5 .debug_aranges 000000c8  00000000  00000000  00001310  2**0
                  CONTENTS, READONLY, DEBUGGING
  6 .debug_info   00001255  00000000  00000000  000013d8  2**0
                  CONTENTS, READONLY, DEBUGGING
  7 .debug_abbrev 00000812  00000000  00000000  0000262d  2**0
                  CONTENTS, READONLY, DEBUGGING
  8 .debug_line   000009be  00000000  00000000  00002e3f  2**0
                  CONTENTS, READONLY, DEBUGGING
  9 .debug_frame  000002cc  00000000  00000000  00003800  2**2
                  CONTENTS, READONLY, DEBUGGING
 10 .debug_str    00000508  00000000  00000000  00003acc  2**0
                  CONTENTS, READONLY, DEBUGGING
 11 .debug_loc    00000f61  00000000  00000000  00003fd4  2**0
                  CONTENTS, READONLY, DEBUGGING
 12 .debug_ranges 00000198  00000000  00000000  00004f35  2**0
                  CONTENTS, READONLY, DEBUGGING

Disassembly of section .text:

00000000 <__vectors>:
   0:	0c 94 2a 00 	jmp	0x54	; 0x54 <__ctors_end>
   4:	0c 94 47 00 	jmp	0x8e	; 0x8e <__bad_interrupt>
   8:	0c 94 47 00 	jmp	0x8e	; 0x8e <__bad_interrupt>
   c:	0c 94 47 00 	jmp	0x8e	; 0x8e <__bad_interrupt>
  10:	0c 94 47 00 	jmp	0x8e	; 0x8e <__bad_interrupt>
  14:	0c 94 47 00 	jmp	0x8e	; 0x8e <__bad_interrupt>
  18:	0c 94 47 00 	jmp	0x8e	; 0x8e <__bad_interrupt>
  1c:	0c 94 47 00 	jmp	0x8e	; 0x8e <__bad_interrupt>
  20:	0c 94 47 00 	jmp	0x8e	; 0x8e <__bad_interrupt>
  24:	0c 94 47 00 	jmp	0x8e	; 0x8e <__bad_interrupt>
  28:	0c 94 47 00 	jmp	0x8e	; 0x8e <__bad_interrupt>
  2c:	0c 94 47 00 	jmp	0x8e	; 0x8e <__bad_interrupt>
  30:	0c 94 47 00 	jmp	0x8e	; 0x8e <__bad_interrupt>
  34:	0c 94 47 00 	jmp	0x8e	; 0x8e <__bad_interrupt>
  38:	0c 94 47 00 	jmp	0x8e	; 0x8e <__bad_interrupt>
  3c:	0c 94 47 00 	jmp	0x8e	; 0x8e <__bad_interrupt>
  40:	0c 94 47 00 	jmp	0x8e	; 0x8e <__bad_interrupt>
  44:	0c 94 47 00 	jmp	0x8e	; 0x8e <__bad_interrupt>
  48:	0c 94 47 00 	jmp	0x8e	; 0x8e <__bad_interrupt>
  4c:	0c 94 47 00 	jmp	0x8e	; 0x8e <__bad_interrupt>
  50:	0c 94 47 00 	jmp	0x8e	; 0x8e <__bad_interrupt>

00000054 <__ctors_end>:
  54:	11 24       	eor	r1, r1
  56:	1f be       	out	0x3f, r1	; 63
  58:	cf e5       	ldi	r28, 0x5F	; 95
  5a:	d8 e0       	ldi	r29, 0x08	; 8
  5c:	de bf       	out	0x3e, r29	; 62
  5e:	cd bf       	out	0x3d, r28	; 61

00000060 <__do_copy_data>:
  60:	14 e0       	ldi	r17, 0x04	; 4
  62:	a0 e6       	ldi	r26, 0x60	; 96
  64:	b0 e0       	ldi	r27, 0x00	; 0
  66:	ee ee       	ldi	r30, 0xEE	; 238
  68:	fd e0       	ldi	r31, 0x0D	; 13
  6a:	02 c0       	rjmp	.+4      	; 0x70 <__do_copy_data+0x10>
  6c:	05 90       	lpm	r0, Z+
  6e:	0d 92       	st	X+, r0
  70:	a0 38       	cpi	r26, 0x80	; 128
  72:	b1 07       	cpc	r27, r17
  74:	d9 f7       	brne	.-10     	; 0x6c <__do_copy_data+0xc>

00000076 <__do_clear_bss>:
  76:	27 e0       	ldi	r18, 0x07	; 7
  78:	a0 e8       	ldi	r26, 0x80	; 128
  7a:	b4 e0       	ldi	r27, 0x04	; 4
  7c:	01 c0       	rjmp	.+2      	; 0x80 <.do_clear_bss_start>

0000007e <.do_clear_bss_loop>:
  7e:	1d 92       	st	X+, r1

00000080 <.do_clear_bss_start>:
  80:	a2 31       	cpi	r26, 0x12	; 18
  82:	b2 07       	cpc	r27, r18
  84:	e1 f7       	brne	.-8      	; 0x7e <.do_clear_bss_loop>
  86:	0e 94 c0 05 	call	0xb80	; 0xb80 <main>
  8a:	0c 94 f5 06 	jmp	0xdea	; 0xdea <_exit>

0000008e <__bad_interrupt>:
  8e:	0c 94 00 00 	jmp	0	; 0x0 <__vectors>

00000092 <time>:
  92:	fc 01       	movw	r30, r24
  94:	0f b6       	in	r0, 0x3f	; 63
  96:	f8 94       	cli
  98:	60 91 0e 07 	lds	r22, 0x070E	; 0x80070e <__system_time>
  9c:	70 91 0f 07 	lds	r23, 0x070F	; 0x80070f <__system_time+0x1>
  a0:	80 91 10 07 	lds	r24, 0x0710	; 0x800710 <__system_time+0x2>
  a4:	90 91 11 07 	lds	r25, 0x0711	; 0x800711 <__system_time+0x3>
  a8:	0f be       	out	0x3f, r0	; 63
  aa:	30 97       	sbiw	r30, 0x00	; 0
  ac:	21 f0       	breq	.+8      	; 0xb6 <time+0x24>
  ae:	60 83       	st	Z, r22
  b0:	71 83       	std	Z+1, r23	; 0x01
  b2:	82 83       	std	Z+2, r24	; 0x02
  b4:	93 83       	std	Z+3, r25	; 0x03
  b6:	08 95       	ret

000000b8 <reset>:
	return ans;
}

int ghostStrategy(int id) {
	return ghostStrategyShortestPath(id);
}
  b8:	85 b3       	in	r24, 0x15	; 21
  ba:	80 6c       	ori	r24, 0xC0	; 192
  bc:	85 bb       	out	0x15, r24	; 21
  be:	08 95       	ret

000000c0 <ledMatrixInit>:
  c0:	8f ef       	ldi	r24, 0xFF	; 255
  c2:	8a bb       	out	0x1a, r24	; 26
  c4:	8f ec       	ldi	r24, 0xCF	; 207
  c6:	84 bb       	out	0x14, r24	; 20
  c8:	85 b3       	in	r24, 0x15	; 21
  ca:	80 6c       	ori	r24, 0xC0	; 192
  cc:	85 bb       	out	0x15, r24	; 21
  ce:	08 95       	ret

000000d0 <controlInit>:
  d0:	87 b3       	in	r24, 0x17	; 23
  d2:	84 7f       	andi	r24, 0xF4	; 244
  d4:	87 bb       	out	0x17, r24	; 23
  d6:	08 95       	ret

000000d8 <buzzerInit>:
  d8:	ba 9a       	sbi	0x17, 2	; 23
  da:	08 95       	ret

000000dc <setBoardCommon>:
  dc:	95 b3       	in	r25, 0x15	; 21
  de:	90 7f       	andi	r25, 0xF0	; 240
  e0:	95 bb       	out	0x15, r25	; 21
  e2:	95 b3       	in	r25, 0x15	; 21
  e4:	8f 70       	andi	r24, 0x0F	; 15
  e6:	98 2b       	or	r25, r24
  e8:	95 bb       	out	0x15, r25	; 21
  ea:	08 95       	ret

000000ec <setBoardRed>:
  ec:	ae 98       	cbi	0x15, 6	; 21
  ee:	9b b3       	in	r25, 0x1b	; 27
  f0:	90 7f       	andi	r25, 0xF0	; 240
  f2:	9b bb       	out	0x1b, r25	; 27
  f4:	9b b3       	in	r25, 0x1b	; 27
  f6:	8f 70       	andi	r24, 0x0F	; 15
  f8:	98 2b       	or	r25, r24
  fa:	9b bb       	out	0x1b, r25	; 27
  fc:	08 95       	ret

000000fe <setBoardGreen>:
  fe:	af 98       	cbi	0x15, 7	; 21
 100:	9b b3       	in	r25, 0x1b	; 27
 102:	9f 70       	andi	r25, 0x0F	; 15
 104:	9b bb       	out	0x1b, r25	; 27
 106:	2b b3       	in	r18, 0x1b	; 27
 108:	30 e1       	ldi	r19, 0x10	; 16
 10a:	83 9f       	mul	r24, r19
 10c:	c0 01       	movw	r24, r0
 10e:	11 24       	eor	r1, r1
 110:	82 2b       	or	r24, r18
 112:	8b bb       	out	0x1b, r24	; 27
 114:	08 95       	ret

00000116 <makeBoard>:
 116:	a0 e0       	ldi	r26, 0x00	; 0
 118:	b0 e0       	ldi	r27, 0x00	; 0
 11a:	10 c0       	rjmp	.+32     	; 0x13c <makeBoard+0x26>
 11c:	fb 01       	movw	r30, r22
 11e:	e8 0f       	add	r30, r24
 120:	f9 1f       	adc	r31, r25
 122:	20 81       	ld	r18, Z
 124:	fa 01       	movw	r30, r20
 126:	e8 0f       	add	r30, r24
 128:	f9 1f       	adc	r31, r25
 12a:	20 83       	st	Z, r18
 12c:	01 96       	adiw	r24, 0x01	; 1
 12e:	80 31       	cpi	r24, 0x10	; 16
 130:	91 05       	cpc	r25, r1
 132:	a1 f7       	brne	.-24     	; 0x11c <makeBoard+0x6>
 134:	11 96       	adiw	r26, 0x01	; 1
 136:	a0 31       	cpi	r26, 0x10	; 16
 138:	b1 05       	cpc	r27, r1
 13a:	79 f0       	breq	.+30     	; 0x15a <makeBoard+0x44>
 13c:	80 e0       	ldi	r24, 0x00	; 0
 13e:	90 e0       	ldi	r25, 0x00	; 0
 140:	ad 01       	movw	r20, r26
 142:	42 95       	swap	r20
 144:	52 95       	swap	r21
 146:	50 7f       	andi	r21, 0xF0	; 240
 148:	54 27       	eor	r21, r20
 14a:	40 7f       	andi	r20, 0xF0	; 240
 14c:	54 27       	eor	r21, r20
 14e:	ba 01       	movw	r22, r20
 150:	60 59       	subi	r22, 0x90	; 144
 152:	7f 4f       	sbci	r23, 0xFF	; 255
 154:	40 58       	subi	r20, 0x80	; 128
 156:	5b 4f       	sbci	r21, 0xFB	; 251
 158:	e1 cf       	rjmp	.-62     	; 0x11c <makeBoard+0x6>
 15a:	80 91 6e 00 	lds	r24, 0x006E	; 0x80006e <px>
 15e:	90 91 6f 00 	lds	r25, 0x006F	; 0x80006f <px+0x1>
 162:	40 91 6c 00 	lds	r20, 0x006C	; 0x80006c <py>
 166:	50 91 6d 00 	lds	r21, 0x006D	; 0x80006d <py+0x1>
 16a:	fa 01       	movw	r30, r20
 16c:	31 96       	adiw	r30, 0x01	; 1
 16e:	9c 01       	movw	r18, r24
 170:	22 95       	swap	r18
 172:	32 95       	swap	r19
 174:	30 7f       	andi	r19, 0xF0	; 240
 176:	32 27       	eor	r19, r18
 178:	20 7f       	andi	r18, 0xF0	; 240
 17a:	32 27       	eor	r19, r18
 17c:	20 57       	subi	r18, 0x70	; 112
 17e:	3b 4f       	sbci	r19, 0xFB	; 251
 180:	d9 01       	movw	r26, r18
 182:	ae 0f       	add	r26, r30
 184:	bf 1f       	adc	r27, r31
 186:	60 e5       	ldi	r22, 0x50	; 80
 188:	6c 93       	st	X, r22
 18a:	82 95       	swap	r24
 18c:	92 95       	swap	r25
 18e:	90 7f       	andi	r25, 0xF0	; 240
 190:	98 27       	eor	r25, r24
 192:	80 7f       	andi	r24, 0xF0	; 240
 194:	98 27       	eor	r25, r24
 196:	80 58       	subi	r24, 0x80	; 128
 198:	9b 4f       	sbci	r25, 0xFB	; 251
 19a:	e8 0f       	add	r30, r24
 19c:	f9 1f       	adc	r31, r25
 19e:	60 83       	st	Z, r22
 1a0:	f9 01       	movw	r30, r18
 1a2:	e4 0f       	add	r30, r20
 1a4:	f5 1f       	adc	r31, r21
 1a6:	60 83       	st	Z, r22
 1a8:	fc 01       	movw	r30, r24
 1aa:	e4 0f       	add	r30, r20
 1ac:	f5 1f       	adc	r31, r21
 1ae:	60 83       	st	Z, r22
 1b0:	80 91 68 00 	lds	r24, 0x0068	; 0x800068 <gx>
 1b4:	90 91 69 00 	lds	r25, 0x0069	; 0x800069 <gx+0x1>
 1b8:	40 91 64 00 	lds	r20, 0x0064	; 0x800064 <gy>
 1bc:	50 91 65 00 	lds	r21, 0x0065	; 0x800065 <gy+0x1>
 1c0:	fa 01       	movw	r30, r20
 1c2:	31 96       	adiw	r30, 0x01	; 1
 1c4:	9c 01       	movw	r18, r24
 1c6:	22 95       	swap	r18
 1c8:	32 95       	swap	r19
 1ca:	30 7f       	andi	r19, 0xF0	; 240
 1cc:	32 27       	eor	r19, r18
 1ce:	20 7f       	andi	r18, 0xF0	; 240
 1d0:	32 27       	eor	r19, r18
 1d2:	20 57       	subi	r18, 0x70	; 112
 1d4:	3b 4f       	sbci	r19, 0xFB	; 251
 1d6:	d9 01       	movw	r26, r18
 1d8:	ae 0f       	add	r26, r30
 1da:	bf 1f       	adc	r27, r31
 1dc:	61 e3       	ldi	r22, 0x31	; 49
 1de:	6c 93       	st	X, r22
 1e0:	82 95       	swap	r24
 1e2:	92 95       	swap	r25
 1e4:	90 7f       	andi	r25, 0xF0	; 240
 1e6:	98 27       	eor	r25, r24
 1e8:	80 7f       	andi	r24, 0xF0	; 240
 1ea:	98 27       	eor	r25, r24
 1ec:	80 58       	subi	r24, 0x80	; 128
 1ee:	9b 4f       	sbci	r25, 0xFB	; 251
 1f0:	e8 0f       	add	r30, r24
 1f2:	f9 1f       	adc	r31, r25
 1f4:	60 83       	st	Z, r22
 1f6:	f9 01       	movw	r30, r18
 1f8:	e4 0f       	add	r30, r20
 1fa:	f5 1f       	adc	r31, r21
 1fc:	60 83       	st	Z, r22
 1fe:	fc 01       	movw	r30, r24
 200:	e4 0f       	add	r30, r20
 202:	f5 1f       	adc	r31, r21
 204:	60 83       	st	Z, r22
 206:	08 95       	ret

00000208 <displayBoard>:
 208:	ef 92       	push	r14
 20a:	ff 92       	push	r15
 20c:	0f 93       	push	r16
 20e:	1f 93       	push	r17
 210:	cf 93       	push	r28
 212:	df 93       	push	r29
 214:	e1 2c       	mov	r14, r1
 216:	f1 2c       	mov	r15, r1
 218:	8e 2d       	mov	r24, r14
 21a:	0e 94 6e 00 	call	0xdc	; 0xdc <setBoardCommon>
 21e:	c0 e0       	ldi	r28, 0x00	; 0
 220:	d0 e0       	ldi	r29, 0x00	; 0
 222:	87 01       	movw	r16, r14
 224:	02 95       	swap	r16
 226:	12 95       	swap	r17
 228:	10 7f       	andi	r17, 0xF0	; 240
 22a:	10 27       	eor	r17, r16
 22c:	00 7f       	andi	r16, 0xF0	; 240
 22e:	10 27       	eor	r17, r16
 230:	00 58       	subi	r16, 0x80	; 128
 232:	1b 4f       	sbci	r17, 0xFB	; 251
 234:	f8 01       	movw	r30, r16
 236:	ec 0f       	add	r30, r28
 238:	fd 1f       	adc	r31, r29
 23a:	80 81       	ld	r24, Z
 23c:	8e 32       	cpi	r24, 0x2E	; 46
 23e:	09 f4       	brne	.+2      	; 0x242 <displayBoard+0x3a>
 240:	4b c0       	rjmp	.+150    	; 0x2d8 <displayBoard+0xd0>
 242:	f8 01       	movw	r30, r16
 244:	ec 0f       	add	r30, r28
 246:	fd 1f       	adc	r31, r29
 248:	80 81       	ld	r24, Z
 24a:	83 32       	cpi	r24, 0x23	; 35
 24c:	21 f4       	brne	.+8      	; 0x256 <displayBoard+0x4e>
 24e:	8c 2f       	mov	r24, r28
 250:	0e 94 76 00 	call	0xec	; 0xec <setBoardRed>
 254:	3b c0       	rjmp	.+118    	; 0x2cc <displayBoard+0xc4>
 256:	f8 01       	movw	r30, r16
 258:	ec 0f       	add	r30, r28
 25a:	fd 1f       	adc	r31, r29
 25c:	80 81       	ld	r24, Z
 25e:	81 33       	cpi	r24, 0x31	; 49
 260:	21 f4       	brne	.+8      	; 0x26a <displayBoard+0x62>
 262:	8c 2f       	mov	r24, r28
 264:	0e 94 7f 00 	call	0xfe	; 0xfe <setBoardGreen>
 268:	31 c0       	rjmp	.+98     	; 0x2cc <displayBoard+0xc4>
 26a:	f8 01       	movw	r30, r16
 26c:	ec 0f       	add	r30, r28
 26e:	fd 1f       	adc	r31, r29
 270:	80 81       	ld	r24, Z
 272:	80 35       	cpi	r24, 0x50	; 80
 274:	39 f4       	brne	.+14     	; 0x284 <displayBoard+0x7c>
 276:	8c 2f       	mov	r24, r28
 278:	0e 94 7f 00 	call	0xfe	; 0xfe <setBoardGreen>
 27c:	8c 2f       	mov	r24, r28
 27e:	0e 94 76 00 	call	0xec	; 0xec <setBoardRed>
 282:	24 c0       	rjmp	.+72     	; 0x2cc <displayBoard+0xc4>
 284:	f8 01       	movw	r30, r16
 286:	ec 0f       	add	r30, r28
 288:	fd 1f       	adc	r31, r29
 28a:	80 81       	ld	r24, Z
 28c:	86 34       	cpi	r24, 0x46	; 70
 28e:	f1 f4       	brne	.+60     	; 0x2cc <displayBoard+0xc4>
 290:	80 91 84 05 	lds	r24, 0x0584	; 0x800584 <foodBlinkState>
 294:	90 91 85 05 	lds	r25, 0x0585	; 0x800585 <foodBlinkState+0x1>
 298:	01 96       	adiw	r24, 0x01	; 1
 29a:	8f 77       	andi	r24, 0x7F	; 127
 29c:	90 78       	andi	r25, 0x80	; 128
 29e:	99 23       	and	r25, r25
 2a0:	24 f4       	brge	.+8      	; 0x2aa <displayBoard+0xa2>
 2a2:	01 97       	sbiw	r24, 0x01	; 1
 2a4:	80 68       	ori	r24, 0x80	; 128
 2a6:	9f 6f       	ori	r25, 0xFF	; 255
 2a8:	01 96       	adiw	r24, 0x01	; 1
 2aa:	90 93 85 05 	sts	0x0585, r25	; 0x800585 <foodBlinkState+0x1>
 2ae:	80 93 84 05 	sts	0x0584, r24	; 0x800584 <foodBlinkState>
 2b2:	80 91 84 05 	lds	r24, 0x0584	; 0x800584 <foodBlinkState>
 2b6:	90 91 85 05 	lds	r25, 0x0585	; 0x800585 <foodBlinkState+0x1>
 2ba:	80 34       	cpi	r24, 0x40	; 64
 2bc:	91 05       	cpc	r25, r1
 2be:	64 f0       	brlt	.+24     	; 0x2d8 <displayBoard+0xd0>
 2c0:	8c 2f       	mov	r24, r28
 2c2:	0e 94 7f 00 	call	0xfe	; 0xfe <setBoardGreen>
 2c6:	8c 2f       	mov	r24, r28
 2c8:	0e 94 76 00 	call	0xec	; 0xec <setBoardRed>
 2cc:	82 e4       	ldi	r24, 0x42	; 66
 2ce:	8a 95       	dec	r24
 2d0:	f1 f7       	brne	.-4      	; 0x2ce <displayBoard+0xc6>
 2d2:	00 c0       	rjmp	.+0      	; 0x2d4 <displayBoard+0xcc>
 2d4:	0e 94 5c 00 	call	0xb8	; 0xb8 <reset>
 2d8:	21 96       	adiw	r28, 0x01	; 1
 2da:	c0 31       	cpi	r28, 0x10	; 16
 2dc:	d1 05       	cpc	r29, r1
 2de:	09 f0       	breq	.+2      	; 0x2e2 <displayBoard+0xda>
 2e0:	a9 cf       	rjmp	.-174    	; 0x234 <displayBoard+0x2c>
 2e2:	8f ef       	ldi	r24, 0xFF	; 255
 2e4:	e8 1a       	sub	r14, r24
 2e6:	f8 0a       	sbc	r15, r24
 2e8:	80 e1       	ldi	r24, 0x10	; 16
 2ea:	e8 16       	cp	r14, r24
 2ec:	f1 04       	cpc	r15, r1
 2ee:	09 f0       	breq	.+2      	; 0x2f2 <displayBoard+0xea>
 2f0:	93 cf       	rjmp	.-218    	; 0x218 <displayBoard+0x10>
 2f2:	df 91       	pop	r29
 2f4:	cf 91       	pop	r28
 2f6:	1f 91       	pop	r17
 2f8:	0f 91       	pop	r16
 2fa:	ff 90       	pop	r15
 2fc:	ef 90       	pop	r14
 2fe:	08 95       	ret

00000300 <clash>:
 300:	cf 92       	push	r12
 302:	df 92       	push	r13
 304:	ef 92       	push	r14
 306:	ff 92       	push	r15
 308:	0f 93       	push	r16
 30a:	1f 93       	push	r17
 30c:	cf 93       	push	r28
 30e:	df 93       	push	r29
 310:	ec 01       	movw	r28, r24
 312:	02 96       	adiw	r24, 0x02	; 2
 314:	7b 01       	movw	r14, r22
 316:	e2 e0       	ldi	r30, 0x02	; 2
 318:	ee 0e       	add	r14, r30
 31a:	f1 1c       	adc	r15, r1
 31c:	8a 01       	movw	r16, r20
 31e:	0e 5f       	subi	r16, 0xFE	; 254
 320:	1f 4f       	sbci	r17, 0xFF	; 255
 322:	69 01       	movw	r12, r18
 324:	ef ef       	ldi	r30, 0xFF	; 255
 326:	ce 1a       	sub	r12, r30
 328:	de 0a       	sbc	r13, r30
 32a:	15 c0       	rjmp	.+42     	; 0x356 <clash+0x56>
 32c:	31 96       	adiw	r30, 0x01	; 1
 32e:	e0 17       	cp	r30, r16
 330:	f1 07       	cpc	r31, r17
 332:	39 f0       	breq	.+14     	; 0x342 <clash+0x42>
 334:	ec 17       	cp	r30, r28
 336:	fd 07       	cpc	r31, r29
 338:	c9 f7       	brne	.-14     	; 0x32c <clash+0x2c>
 33a:	2a 17       	cp	r18, r26
 33c:	3b 07       	cpc	r19, r27
 33e:	b1 f4       	brne	.+44     	; 0x36c <clash+0x6c>
 340:	0c c0       	rjmp	.+24     	; 0x35a <clash+0x5a>
 342:	11 96       	adiw	r26, 0x01	; 1
 344:	ea 16       	cp	r14, r26
 346:	fb 06       	cpc	r15, r27
 348:	11 f0       	breq	.+4      	; 0x34e <clash+0x4e>
 34a:	fa 01       	movw	r30, r20
 34c:	f3 cf       	rjmp	.-26     	; 0x334 <clash+0x34>
 34e:	21 96       	adiw	r28, 0x01	; 1
 350:	8c 17       	cp	r24, r28
 352:	9d 07       	cpc	r25, r29
 354:	29 f0       	breq	.+10     	; 0x360 <clash+0x60>
 356:	db 01       	movw	r26, r22
 358:	f8 cf       	rjmp	.-16     	; 0x34a <clash+0x4a>
 35a:	81 e0       	ldi	r24, 0x01	; 1
 35c:	90 e0       	ldi	r25, 0x00	; 0
 35e:	0a c0       	rjmp	.+20     	; 0x374 <clash+0x74>
 360:	80 e0       	ldi	r24, 0x00	; 0
 362:	90 e0       	ldi	r25, 0x00	; 0
 364:	07 c0       	rjmp	.+14     	; 0x374 <clash+0x74>
 366:	81 e0       	ldi	r24, 0x01	; 1
 368:	90 e0       	ldi	r25, 0x00	; 0
 36a:	04 c0       	rjmp	.+8      	; 0x374 <clash+0x74>
 36c:	ac 15       	cp	r26, r12
 36e:	bd 05       	cpc	r27, r13
 370:	e9 f6       	brne	.-70     	; 0x32c <clash+0x2c>
 372:	f9 cf       	rjmp	.-14     	; 0x366 <clash+0x66>
 374:	df 91       	pop	r29
 376:	cf 91       	pop	r28
 378:	1f 91       	pop	r17
 37a:	0f 91       	pop	r16
 37c:	ff 90       	pop	r15
 37e:	ef 90       	pop	r14
 380:	df 90       	pop	r13
 382:	cf 90       	pop	r12
 384:	08 95       	ret

00000386 <movePacman>:
 386:	cf 92       	push	r12
 388:	df 92       	push	r13
 38a:	ef 92       	push	r14
 38c:	ff 92       	push	r15
 38e:	0f 93       	push	r16
 390:	1f 93       	push	r17
 392:	cf 93       	push	r28
 394:	df 93       	push	r29
 396:	a0 91 6e 00 	lds	r26, 0x006E	; 0x80006e <px>
 39a:	b0 91 6f 00 	lds	r27, 0x006F	; 0x80006f <px+0x1>
 39e:	88 0f       	add	r24, r24
 3a0:	99 1f       	adc	r25, r25
 3a2:	fc 01       	movw	r30, r24
 3a4:	e8 58       	subi	r30, 0x88	; 136
 3a6:	fb 4f       	sbci	r31, 0xFB	; 251
 3a8:	c0 81       	ld	r28, Z
 3aa:	d1 81       	ldd	r29, Z+1	; 0x01
 3ac:	ca 0f       	add	r28, r26
 3ae:	db 1f       	adc	r29, r27
 3b0:	60 91 6c 00 	lds	r22, 0x006C	; 0x80006c <py>
 3b4:	70 91 6d 00 	lds	r23, 0x006D	; 0x80006d <py+0x1>
 3b8:	fc 01       	movw	r30, r24
 3ba:	e0 59       	subi	r30, 0x90	; 144
 3bc:	fb 4f       	sbci	r31, 0xFB	; 251
 3be:	c0 80       	ld	r12, Z
 3c0:	d1 80       	ldd	r13, Z+1	; 0x01
 3c2:	c6 0e       	add	r12, r22
 3c4:	d7 1e       	adc	r13, r23
 3c6:	fe 01       	movw	r30, r28
 3c8:	e2 95       	swap	r30
 3ca:	f2 95       	swap	r31
 3cc:	f0 7f       	andi	r31, 0xF0	; 240
 3ce:	fe 27       	eor	r31, r30
 3d0:	e0 7f       	andi	r30, 0xF0	; 240
 3d2:	fe 27       	eor	r31, r30
 3d4:	e0 59       	subi	r30, 0x90	; 144
 3d6:	ff 4f       	sbci	r31, 0xFF	; 255
 3d8:	ec 0d       	add	r30, r12
 3da:	fd 1d       	adc	r31, r13
 3dc:	80 81       	ld	r24, Z
 3de:	83 32       	cpi	r24, 0x23	; 35
 3e0:	09 f4       	brne	.+2      	; 0x3e4 <movePacman+0x5e>
 3e2:	fb c0       	rjmp	.+502    	; 0x5da <__LOCK_REGION_LENGTH__+0x1da>
 3e4:	8e 01       	movw	r16, r28
 3e6:	0f 5f       	subi	r16, 0xFF	; 255
 3e8:	1f 4f       	sbci	r17, 0xFF	; 255
 3ea:	f8 01       	movw	r30, r16
 3ec:	e2 95       	swap	r30
 3ee:	f2 95       	swap	r31
 3f0:	f0 7f       	andi	r31, 0xF0	; 240
 3f2:	fe 27       	eor	r31, r30
 3f4:	e0 7f       	andi	r30, 0xF0	; 240
 3f6:	fe 27       	eor	r31, r30
 3f8:	e0 59       	subi	r30, 0x90	; 144
 3fa:	ff 4f       	sbci	r31, 0xFF	; 255
 3fc:	ec 0d       	add	r30, r12
 3fe:	fd 1d       	adc	r31, r13
 400:	80 81       	ld	r24, Z
 402:	83 32       	cpi	r24, 0x23	; 35
 404:	09 f4       	brne	.+2      	; 0x408 <__LOCK_REGION_LENGTH__+0x8>
 406:	e9 c0       	rjmp	.+466    	; 0x5da <__LOCK_REGION_LENGTH__+0x1da>
 408:	76 01       	movw	r14, r12
 40a:	8f ef       	ldi	r24, 0xFF	; 255
 40c:	e8 1a       	sub	r14, r24
 40e:	f8 0a       	sbc	r15, r24
 410:	fe 01       	movw	r30, r28
 412:	e2 95       	swap	r30
 414:	f2 95       	swap	r31
 416:	f0 7f       	andi	r31, 0xF0	; 240
 418:	fe 27       	eor	r31, r30
 41a:	e0 7f       	andi	r30, 0xF0	; 240
 41c:	fe 27       	eor	r31, r30
 41e:	e0 59       	subi	r30, 0x90	; 144
 420:	ff 4f       	sbci	r31, 0xFF	; 255
 422:	ee 0d       	add	r30, r14
 424:	ff 1d       	adc	r31, r15
 426:	80 81       	ld	r24, Z
 428:	83 32       	cpi	r24, 0x23	; 35
 42a:	09 f4       	brne	.+2      	; 0x42e <__LOCK_REGION_LENGTH__+0x2e>
 42c:	d6 c0       	rjmp	.+428    	; 0x5da <__LOCK_REGION_LENGTH__+0x1da>
 42e:	f8 01       	movw	r30, r16
 430:	e2 95       	swap	r30
 432:	f2 95       	swap	r31
 434:	f0 7f       	andi	r31, 0xF0	; 240
 436:	fe 27       	eor	r31, r30
 438:	e0 7f       	andi	r30, 0xF0	; 240
 43a:	fe 27       	eor	r31, r30
 43c:	e0 59       	subi	r30, 0x90	; 144
 43e:	ff 4f       	sbci	r31, 0xFF	; 255
 440:	ee 0d       	add	r30, r14
 442:	ff 1d       	adc	r31, r15
 444:	80 81       	ld	r24, Z
 446:	83 32       	cpi	r24, 0x23	; 35
 448:	09 f4       	brne	.+2      	; 0x44c <__LOCK_REGION_LENGTH__+0x4c>
 44a:	c7 c0       	rjmp	.+398    	; 0x5da <__LOCK_REGION_LENGTH__+0x1da>
 44c:	20 91 64 00 	lds	r18, 0x0064	; 0x800064 <gy>
 450:	30 91 65 00 	lds	r19, 0x0065	; 0x800065 <gy+0x1>
 454:	40 91 68 00 	lds	r20, 0x0068	; 0x800068 <gx>
 458:	50 91 69 00 	lds	r21, 0x0069	; 0x800069 <gx+0x1>
 45c:	cd 01       	movw	r24, r26
 45e:	0e 94 80 01 	call	0x300	; 0x300 <clash>
 462:	89 2b       	or	r24, r25
 464:	39 f0       	breq	.+14     	; 0x474 <__LOCK_REGION_LENGTH__+0x74>
 466:	81 e0       	ldi	r24, 0x01	; 1
 468:	90 e0       	ldi	r25, 0x00	; 0
 46a:	90 93 83 05 	sts	0x0583, r25	; 0x800583 <gameOver+0x1>
 46e:	80 93 82 05 	sts	0x0582, r24	; 0x800582 <gameOver>
 472:	b3 c0       	rjmp	.+358    	; 0x5da <__LOCK_REGION_LENGTH__+0x1da>
 474:	d0 93 6f 00 	sts	0x006F, r29	; 0x80006f <px+0x1>
 478:	c0 93 6e 00 	sts	0x006E, r28	; 0x80006e <px>
 47c:	d0 92 6d 00 	sts	0x006D, r13	; 0x80006d <py+0x1>
 480:	c0 92 6c 00 	sts	0x006C, r12	; 0x80006c <py>
 484:	fe 01       	movw	r30, r28
 486:	e2 95       	swap	r30
 488:	f2 95       	swap	r31
 48a:	f0 7f       	andi	r31, 0xF0	; 240
 48c:	fe 27       	eor	r31, r30
 48e:	e0 7f       	andi	r30, 0xF0	; 240
 490:	fe 27       	eor	r31, r30
 492:	e0 59       	subi	r30, 0x90	; 144
 494:	ff 4f       	sbci	r31, 0xFF	; 255
 496:	ec 0d       	add	r30, r12
 498:	fd 1d       	adc	r31, r13
 49a:	80 81       	ld	r24, Z
 49c:	86 34       	cpi	r24, 0x46	; 70
 49e:	51 f1       	breq	.+84     	; 0x4f4 <__LOCK_REGION_LENGTH__+0xf4>
 4a0:	fe 01       	movw	r30, r28
 4a2:	e2 95       	swap	r30
 4a4:	f2 95       	swap	r31
 4a6:	f0 7f       	andi	r31, 0xF0	; 240
 4a8:	fe 27       	eor	r31, r30
 4aa:	e0 7f       	andi	r30, 0xF0	; 240
 4ac:	fe 27       	eor	r31, r30
 4ae:	e0 59       	subi	r30, 0x90	; 144
 4b0:	ff 4f       	sbci	r31, 0xFF	; 255
 4b2:	ee 0d       	add	r30, r14
 4b4:	ff 1d       	adc	r31, r15
 4b6:	80 81       	ld	r24, Z
 4b8:	86 34       	cpi	r24, 0x46	; 70
 4ba:	e1 f0       	breq	.+56     	; 0x4f4 <__LOCK_REGION_LENGTH__+0xf4>
 4bc:	f8 01       	movw	r30, r16
 4be:	e2 95       	swap	r30
 4c0:	f2 95       	swap	r31
 4c2:	f0 7f       	andi	r31, 0xF0	; 240
 4c4:	fe 27       	eor	r31, r30
 4c6:	e0 7f       	andi	r30, 0xF0	; 240
 4c8:	fe 27       	eor	r31, r30
 4ca:	e0 59       	subi	r30, 0x90	; 144
 4cc:	ff 4f       	sbci	r31, 0xFF	; 255
 4ce:	ec 0d       	add	r30, r12
 4d0:	fd 1d       	adc	r31, r13
 4d2:	80 81       	ld	r24, Z
 4d4:	86 34       	cpi	r24, 0x46	; 70
 4d6:	71 f0       	breq	.+28     	; 0x4f4 <__LOCK_REGION_LENGTH__+0xf4>
 4d8:	f8 01       	movw	r30, r16
 4da:	e2 95       	swap	r30
 4dc:	f2 95       	swap	r31
 4de:	f0 7f       	andi	r31, 0xF0	; 240
 4e0:	fe 27       	eor	r31, r30
 4e2:	e0 7f       	andi	r30, 0xF0	; 240
 4e4:	fe 27       	eor	r31, r30
 4e6:	e0 59       	subi	r30, 0x90	; 144
 4e8:	ff 4f       	sbci	r31, 0xFF	; 255
 4ea:	ee 0d       	add	r30, r14
 4ec:	ff 1d       	adc	r31, r15
 4ee:	80 81       	ld	r24, Z
 4f0:	86 34       	cpi	r24, 0x46	; 70
 4f2:	59 f4       	brne	.+22     	; 0x50a <__LOCK_REGION_LENGTH__+0x10a>
 4f4:	85 e0       	ldi	r24, 0x05	; 5
 4f6:	90 e0       	ldi	r25, 0x00	; 0
 4f8:	90 93 8b 05 	sts	0x058B, r25	; 0x80058b <buzzerRemainingTime+0x1>
 4fc:	80 93 8a 05 	sts	0x058A, r24	; 0x80058a <buzzerRemainingTime>
 500:	10 92 8d 05 	sts	0x058D, r1	; 0x80058d <ghostEnabled+0x1>
 504:	10 92 8c 05 	sts	0x058C, r1	; 0x80058c <ghostEnabled>
 508:	06 c0       	rjmp	.+12     	; 0x516 <__LOCK_REGION_LENGTH__+0x116>
 50a:	81 e0       	ldi	r24, 0x01	; 1
 50c:	90 e0       	ldi	r25, 0x00	; 0
 50e:	90 93 8d 05 	sts	0x058D, r25	; 0x80058d <ghostEnabled+0x1>
 512:	80 93 8c 05 	sts	0x058C, r24	; 0x80058c <ghostEnabled>
 516:	fe 01       	movw	r30, r28
 518:	e2 95       	swap	r30
 51a:	f2 95       	swap	r31
 51c:	f0 7f       	andi	r31, 0xF0	; 240
 51e:	fe 27       	eor	r31, r30
 520:	e0 7f       	andi	r30, 0xF0	; 240
 522:	fe 27       	eor	r31, r30
 524:	e0 59       	subi	r30, 0x90	; 144
 526:	ff 4f       	sbci	r31, 0xFF	; 255
 528:	ec 0d       	add	r30, r12
 52a:	fd 1d       	adc	r31, r13
 52c:	80 81       	ld	r24, Z
 52e:	86 34       	cpi	r24, 0x46	; 70
 530:	69 f4       	brne	.+26     	; 0x54c <__LOCK_REGION_LENGTH__+0x14c>
 532:	fe 01       	movw	r30, r28
 534:	e2 95       	swap	r30
 536:	f2 95       	swap	r31
 538:	f0 7f       	andi	r31, 0xF0	; 240
 53a:	fe 27       	eor	r31, r30
 53c:	e0 7f       	andi	r30, 0xF0	; 240
 53e:	fe 27       	eor	r31, r30
 540:	e0 59       	subi	r30, 0x90	; 144
 542:	ff 4f       	sbci	r31, 0xFF	; 255
 544:	ec 0d       	add	r30, r12
 546:	fd 1d       	adc	r31, r13
 548:	8e e2       	ldi	r24, 0x2E	; 46
 54a:	80 83       	st	Z, r24
 54c:	f8 01       	movw	r30, r16
 54e:	e2 95       	swap	r30
 550:	f2 95       	swap	r31
 552:	f0 7f       	andi	r31, 0xF0	; 240
 554:	fe 27       	eor	r31, r30
 556:	e0 7f       	andi	r30, 0xF0	; 240
 558:	fe 27       	eor	r31, r30
 55a:	e0 59       	subi	r30, 0x90	; 144
 55c:	ff 4f       	sbci	r31, 0xFF	; 255
 55e:	ec 0d       	add	r30, r12
 560:	fd 1d       	adc	r31, r13
 562:	80 81       	ld	r24, Z
 564:	86 34       	cpi	r24, 0x46	; 70
 566:	71 f4       	brne	.+28     	; 0x584 <__LOCK_REGION_LENGTH__+0x184>
 568:	c8 01       	movw	r24, r16
 56a:	82 95       	swap	r24
 56c:	92 95       	swap	r25
 56e:	90 7f       	andi	r25, 0xF0	; 240
 570:	98 27       	eor	r25, r24
 572:	80 7f       	andi	r24, 0xF0	; 240
 574:	98 27       	eor	r25, r24
 576:	80 59       	subi	r24, 0x90	; 144
 578:	9f 4f       	sbci	r25, 0xFF	; 255
 57a:	fc 01       	movw	r30, r24
 57c:	ec 0d       	add	r30, r12
 57e:	fd 1d       	adc	r31, r13
 580:	8e e2       	ldi	r24, 0x2E	; 46
 582:	80 83       	st	Z, r24
 584:	fe 01       	movw	r30, r28
 586:	e2 95       	swap	r30
 588:	f2 95       	swap	r31
 58a:	f0 7f       	andi	r31, 0xF0	; 240
 58c:	fe 27       	eor	r31, r30
 58e:	e0 7f       	andi	r30, 0xF0	; 240
 590:	fe 27       	eor	r31, r30
 592:	e0 59       	subi	r30, 0x90	; 144
 594:	ff 4f       	sbci	r31, 0xFF	; 255
 596:	ee 0d       	add	r30, r14
 598:	ff 1d       	adc	r31, r15
 59a:	80 81       	ld	r24, Z
 59c:	86 34       	cpi	r24, 0x46	; 70
 59e:	11 f4       	brne	.+4      	; 0x5a4 <__LOCK_REGION_LENGTH__+0x1a4>
 5a0:	8e e2       	ldi	r24, 0x2E	; 46
 5a2:	80 83       	st	Z, r24
 5a4:	f8 01       	movw	r30, r16
 5a6:	e2 95       	swap	r30
 5a8:	f2 95       	swap	r31
 5aa:	f0 7f       	andi	r31, 0xF0	; 240
 5ac:	fe 27       	eor	r31, r30
 5ae:	e0 7f       	andi	r30, 0xF0	; 240
 5b0:	fe 27       	eor	r31, r30
 5b2:	e0 59       	subi	r30, 0x90	; 144
 5b4:	ff 4f       	sbci	r31, 0xFF	; 255
 5b6:	ee 0d       	add	r30, r14
 5b8:	ff 1d       	adc	r31, r15
 5ba:	80 81       	ld	r24, Z
 5bc:	86 34       	cpi	r24, 0x46	; 70
 5be:	69 f4       	brne	.+26     	; 0x5da <__LOCK_REGION_LENGTH__+0x1da>
 5c0:	02 95       	swap	r16
 5c2:	12 95       	swap	r17
 5c4:	10 7f       	andi	r17, 0xF0	; 240
 5c6:	10 27       	eor	r17, r16
 5c8:	00 7f       	andi	r16, 0xF0	; 240
 5ca:	10 27       	eor	r17, r16
 5cc:	00 59       	subi	r16, 0x90	; 144
 5ce:	1f 4f       	sbci	r17, 0xFF	; 255
 5d0:	f8 01       	movw	r30, r16
 5d2:	ee 0d       	add	r30, r14
 5d4:	ff 1d       	adc	r31, r15
 5d6:	8e e2       	ldi	r24, 0x2E	; 46
 5d8:	80 83       	st	Z, r24
 5da:	df 91       	pop	r29
 5dc:	cf 91       	pop	r28
 5de:	1f 91       	pop	r17
 5e0:	0f 91       	pop	r16
 5e2:	ff 90       	pop	r15
 5e4:	ef 90       	pop	r14
 5e6:	df 90       	pop	r13
 5e8:	cf 90       	pop	r12
 5ea:	08 95       	ret

000005ec <buzz>:
 5ec:	80 91 8a 05 	lds	r24, 0x058A	; 0x80058a <buzzerRemainingTime>
 5f0:	90 91 8b 05 	lds	r25, 0x058B	; 0x80058b <buzzerRemainingTime+0x1>
 5f4:	18 16       	cp	r1, r24
 5f6:	19 06       	cpc	r1, r25
 5f8:	14 f4       	brge	.+4      	; 0x5fe <buzz+0x12>
 5fa:	c2 9a       	sbi	0x18, 2	; 24
 5fc:	01 c0       	rjmp	.+2      	; 0x600 <buzz+0x14>
 5fe:	c2 98       	cbi	0x18, 2	; 24
 600:	80 91 8a 05 	lds	r24, 0x058A	; 0x80058a <buzzerRemainingTime>
 604:	90 91 8b 05 	lds	r25, 0x058B	; 0x80058b <buzzerRemainingTime+0x1>
 608:	89 2b       	or	r24, r25
 60a:	49 f0       	breq	.+18     	; 0x61e <buzz+0x32>
 60c:	80 91 8a 05 	lds	r24, 0x058A	; 0x80058a <buzzerRemainingTime>
 610:	90 91 8b 05 	lds	r25, 0x058B	; 0x80058b <buzzerRemainingTime+0x1>
 614:	01 97       	sbiw	r24, 0x01	; 1
 616:	90 93 8b 05 	sts	0x058B, r25	; 0x80058b <buzzerRemainingTime+0x1>
 61a:	80 93 8a 05 	sts	0x058A, r24	; 0x80058a <buzzerRemainingTime>
 61e:	08 95       	ret

00000620 <moveGhost>:
 620:	9c 01       	movw	r18, r24
 622:	22 0f       	add	r18, r18
 624:	33 1f       	adc	r19, r19
 626:	f9 01       	movw	r30, r18
 628:	e8 59       	subi	r30, 0x98	; 152
 62a:	ff 4f       	sbci	r31, 0xFF	; 255
 62c:	66 0f       	add	r22, r22
 62e:	77 1f       	adc	r23, r23
 630:	db 01       	movw	r26, r22
 632:	a8 58       	subi	r26, 0x88	; 136
 634:	bb 4f       	sbci	r27, 0xFB	; 251
 636:	01 90       	ld	r0, Z+
 638:	f0 81       	ld	r31, Z
 63a:	e0 2d       	mov	r30, r0
 63c:	4d 91       	ld	r20, X+
 63e:	5c 91       	ld	r21, X
 640:	4e 0f       	add	r20, r30
 642:	5f 1f       	adc	r21, r31
 644:	f9 01       	movw	r30, r18
 646:	ec 59       	subi	r30, 0x9C	; 156
 648:	ff 4f       	sbci	r31, 0xFF	; 255
 64a:	db 01       	movw	r26, r22
 64c:	a0 59       	subi	r26, 0x90	; 144
 64e:	bb 4f       	sbci	r27, 0xFB	; 251
 650:	01 90       	ld	r0, Z+
 652:	f0 81       	ld	r31, Z
 654:	e0 2d       	mov	r30, r0
 656:	2d 91       	ld	r18, X+
 658:	3c 91       	ld	r19, X
 65a:	2e 0f       	add	r18, r30
 65c:	3f 1f       	adc	r19, r31
 65e:	fa 01       	movw	r30, r20
 660:	e2 95       	swap	r30
 662:	f2 95       	swap	r31
 664:	f0 7f       	andi	r31, 0xF0	; 240
 666:	fe 27       	eor	r31, r30
 668:	e0 7f       	andi	r30, 0xF0	; 240
 66a:	fe 27       	eor	r31, r30
 66c:	e0 59       	subi	r30, 0x90	; 144
 66e:	ff 4f       	sbci	r31, 0xFF	; 255
 670:	e2 0f       	add	r30, r18
 672:	f3 1f       	adc	r31, r19
 674:	60 81       	ld	r22, Z
 676:	63 32       	cpi	r22, 0x23	; 35
 678:	09 f4       	brne	.+2      	; 0x67c <moveGhost+0x5c>
 67a:	4c c0       	rjmp	.+152    	; 0x714 <moveGhost+0xf4>
 67c:	ba 01       	movw	r22, r20
 67e:	6f 5f       	subi	r22, 0xFF	; 255
 680:	7f 4f       	sbci	r23, 0xFF	; 255
 682:	fb 01       	movw	r30, r22
 684:	e2 95       	swap	r30
 686:	f2 95       	swap	r31
 688:	f0 7f       	andi	r31, 0xF0	; 240
 68a:	fe 27       	eor	r31, r30
 68c:	e0 7f       	andi	r30, 0xF0	; 240
 68e:	fe 27       	eor	r31, r30
 690:	e0 59       	subi	r30, 0x90	; 144
 692:	ff 4f       	sbci	r31, 0xFF	; 255
 694:	e2 0f       	add	r30, r18
 696:	f3 1f       	adc	r31, r19
 698:	e0 81       	ld	r30, Z
 69a:	e3 32       	cpi	r30, 0x23	; 35
 69c:	d9 f1       	breq	.+118    	; 0x714 <moveGhost+0xf4>
 69e:	d9 01       	movw	r26, r18
 6a0:	11 96       	adiw	r26, 0x01	; 1
 6a2:	fa 01       	movw	r30, r20
 6a4:	e2 95       	swap	r30
 6a6:	f2 95       	swap	r31
 6a8:	f0 7f       	andi	r31, 0xF0	; 240
 6aa:	fe 27       	eor	r31, r30
 6ac:	e0 7f       	andi	r30, 0xF0	; 240
 6ae:	fe 27       	eor	r31, r30
 6b0:	e0 59       	subi	r30, 0x90	; 144
 6b2:	ff 4f       	sbci	r31, 0xFF	; 255
 6b4:	ea 0f       	add	r30, r26
 6b6:	fb 1f       	adc	r31, r27
 6b8:	e0 81       	ld	r30, Z
 6ba:	e3 32       	cpi	r30, 0x23	; 35
 6bc:	59 f1       	breq	.+86     	; 0x714 <moveGhost+0xf4>
 6be:	62 95       	swap	r22
 6c0:	72 95       	swap	r23
 6c2:	70 7f       	andi	r23, 0xF0	; 240
 6c4:	76 27       	eor	r23, r22
 6c6:	60 7f       	andi	r22, 0xF0	; 240
 6c8:	76 27       	eor	r23, r22
 6ca:	60 59       	subi	r22, 0x90	; 144
 6cc:	7f 4f       	sbci	r23, 0xFF	; 255
 6ce:	a6 0f       	add	r26, r22
 6d0:	b7 1f       	adc	r27, r23
 6d2:	6c 91       	ld	r22, X
 6d4:	63 32       	cpi	r22, 0x23	; 35
 6d6:	f1 f0       	breq	.+60     	; 0x714 <moveGhost+0xf4>
 6d8:	88 0f       	add	r24, r24
 6da:	99 1f       	adc	r25, r25
 6dc:	fc 01       	movw	r30, r24
 6de:	e8 59       	subi	r30, 0x98	; 152
 6e0:	ff 4f       	sbci	r31, 0xFF	; 255
 6e2:	51 83       	std	Z+1, r21	; 0x01
 6e4:	40 83       	st	Z, r20
 6e6:	fc 01       	movw	r30, r24
 6e8:	ec 59       	subi	r30, 0x9C	; 156
 6ea:	ff 4f       	sbci	r31, 0xFF	; 255
 6ec:	31 83       	std	Z+1, r19	; 0x01
 6ee:	20 83       	st	Z, r18
 6f0:	60 91 6c 00 	lds	r22, 0x006C	; 0x80006c <py>
 6f4:	70 91 6d 00 	lds	r23, 0x006D	; 0x80006d <py+0x1>
 6f8:	80 91 6e 00 	lds	r24, 0x006E	; 0x80006e <px>
 6fc:	90 91 6f 00 	lds	r25, 0x006F	; 0x80006f <px+0x1>
 700:	0e 94 80 01 	call	0x300	; 0x300 <clash>
 704:	89 2b       	or	r24, r25
 706:	31 f0       	breq	.+12     	; 0x714 <moveGhost+0xf4>
 708:	81 e0       	ldi	r24, 0x01	; 1
 70a:	90 e0       	ldi	r25, 0x00	; 0
 70c:	90 93 83 05 	sts	0x0583, r25	; 0x800583 <gameOver+0x1>
 710:	80 93 82 05 	sts	0x0582, r24	; 0x800582 <gameOver>
 714:	08 95       	ret

00000716 <ghostStrategyShortestPath>:
 716:	2f 92       	push	r2
 718:	3f 92       	push	r3
 71a:	4f 92       	push	r4
 71c:	5f 92       	push	r5
 71e:	6f 92       	push	r6
 720:	7f 92       	push	r7
 722:	8f 92       	push	r8
 724:	9f 92       	push	r9
 726:	af 92       	push	r10
 728:	bf 92       	push	r11
 72a:	cf 92       	push	r12
 72c:	df 92       	push	r13
 72e:	ef 92       	push	r14
 730:	ff 92       	push	r15
 732:	0f 93       	push	r16
 734:	1f 93       	push	r17
 736:	cf 93       	push	r28
 738:	df 93       	push	r29
 73a:	cd b7       	in	r28, 0x3d	; 61
 73c:	de b7       	in	r29, 0x3e	; 62
 73e:	2b 97       	sbiw	r28, 0x0b	; 11
 740:	0f b6       	in	r0, 0x3f	; 63
 742:	f8 94       	cli
 744:	de bf       	out	0x3e, r29	; 62
 746:	0f be       	out	0x3f, r0	; 63
 748:	cd bf       	out	0x3d, r28	; 61
 74a:	9e 83       	std	Y+6, r25	; 0x06
 74c:	8d 83       	std	Y+5, r24	; 0x05
 74e:	ee e8       	ldi	r30, 0x8E	; 142
 750:	f5 e0       	ldi	r31, 0x05	; 5
 752:	4e e8       	ldi	r20, 0x8E	; 142
 754:	56 e0       	ldi	r21, 0x06	; 6
 756:	2f ef       	ldi	r18, 0xFF	; 255
 758:	08 c0       	rjmp	.+16     	; 0x76a <ghostStrategyShortestPath+0x54>
 75a:	21 93       	st	Z+, r18
 75c:	e8 17       	cp	r30, r24
 75e:	f9 07       	cpc	r31, r25
 760:	e1 f7       	brne	.-8      	; 0x75a <ghostStrategyShortestPath+0x44>
 762:	fc 01       	movw	r30, r24
 764:	48 17       	cp	r20, r24
 766:	59 07       	cpc	r21, r25
 768:	19 f0       	breq	.+6      	; 0x770 <ghostStrategyShortestPath+0x5a>
 76a:	cf 01       	movw	r24, r30
 76c:	40 96       	adiw	r24, 0x10	; 16
 76e:	f5 cf       	rjmp	.-22     	; 0x75a <ghostStrategyShortestPath+0x44>
 770:	20 91 6e 00 	lds	r18, 0x006E	; 0x80006e <px>
 774:	30 91 6f 00 	lds	r19, 0x006F	; 0x80006f <px+0x1>
 778:	80 91 6c 00 	lds	r24, 0x006C	; 0x80006c <py>
 77c:	90 91 6d 00 	lds	r25, 0x006D	; 0x80006d <py+0x1>
 780:	22 95       	swap	r18
 782:	32 95       	swap	r19
 784:	30 7f       	andi	r19, 0xF0	; 240
 786:	32 27       	eor	r19, r18
 788:	20 7f       	andi	r18, 0xF0	; 240
 78a:	32 27       	eor	r19, r18
 78c:	f9 01       	movw	r30, r18
 78e:	e2 57       	subi	r30, 0x72	; 114
 790:	fa 4f       	sbci	r31, 0xFA	; 250
 792:	e8 0f       	add	r30, r24
 794:	f9 1f       	adc	r31, r25
 796:	10 82       	st	Z, r1
 798:	10 92 81 05 	sts	0x0581, r1	; 0x800581 <frontptr+0x1>
 79c:	10 92 80 05 	sts	0x0580, r1	; 0x800580 <frontptr>
 7a0:	41 e0       	ldi	r20, 0x01	; 1
 7a2:	50 e0       	ldi	r21, 0x00	; 0
 7a4:	50 93 89 05 	sts	0x0589, r21	; 0x800589 <backptr+0x1>
 7a8:	40 93 88 05 	sts	0x0588, r20	; 0x800588 <backptr>
 7ac:	82 2b       	or	r24, r18
 7ae:	80 93 8e 06 	sts	0x068E, r24	; 0x80068e <q>
 7b2:	0f 2e       	mov	r0, r31
 7b4:	fe e8       	ldi	r31, 0x8E	; 142
 7b6:	8f 2e       	mov	r8, r31
 7b8:	f6 e0       	ldi	r31, 0x06	; 6
 7ba:	9f 2e       	mov	r9, r31
 7bc:	f0 2d       	mov	r31, r0
 7be:	22 24       	eor	r2, r2
 7c0:	23 94       	inc	r2
 7c2:	31 2c       	mov	r3, r1
 7c4:	81 e0       	ldi	r24, 0x01	; 1
 7c6:	90 e0       	ldi	r25, 0x00	; 0
 7c8:	9c 01       	movw	r18, r24
 7ca:	2e 58       	subi	r18, 0x8E	; 142
 7cc:	36 40       	sbci	r19, 0x06	; 6
 7ce:	39 01       	movw	r6, r18
 7d0:	0f 2e       	mov	r0, r31
 7d2:	f0 e8       	ldi	r31, 0x80	; 128
 7d4:	af 2e       	mov	r10, r31
 7d6:	f4 e0       	ldi	r31, 0x04	; 4
 7d8:	bf 2e       	mov	r11, r31
 7da:	f0 2d       	mov	r31, r0
 7dc:	23 01       	movw	r4, r6
 7de:	48 0c       	add	r4, r8
 7e0:	59 1c       	adc	r5, r9
 7e2:	d4 01       	movw	r26, r8
 7e4:	8d 91       	ld	r24, X+
 7e6:	4d 01       	movw	r8, r26
 7e8:	08 2f       	mov	r16, r24
 7ea:	10 e0       	ldi	r17, 0x00	; 0
 7ec:	15 95       	asr	r17
 7ee:	07 95       	ror	r16
 7f0:	15 95       	asr	r17
 7f2:	07 95       	ror	r16
 7f4:	15 95       	asr	r17
 7f6:	07 95       	ror	r16
 7f8:	15 95       	asr	r17
 7fa:	07 95       	ror	r16
 7fc:	8f 70       	andi	r24, 0x0F	; 15
 7fe:	e8 2e       	mov	r14, r24
 800:	f1 2c       	mov	r15, r1
 802:	e8 e7       	ldi	r30, 0x78	; 120
 804:	f4 e0       	ldi	r31, 0x04	; 4
 806:	fa 83       	std	Y+2, r31	; 0x02
 808:	e9 83       	std	Y+1, r30	; 0x01
 80a:	20 e7       	ldi	r18, 0x70	; 112
 80c:	34 e0       	ldi	r19, 0x04	; 4
 80e:	3c 83       	std	Y+4, r19	; 0x04
 810:	2b 83       	std	Y+3, r18	; 0x03
 812:	c8 01       	movw	r24, r16
 814:	82 95       	swap	r24
 816:	92 95       	swap	r25
 818:	90 7f       	andi	r25, 0xF0	; 240
 81a:	98 27       	eor	r25, r24
 81c:	80 7f       	andi	r24, 0xF0	; 240
 81e:	98 27       	eor	r25, r24
 820:	82 57       	subi	r24, 0x72	; 114
 822:	9a 4f       	sbci	r25, 0xFA	; 250
 824:	6c 01       	movw	r12, r24
 826:	ce 0c       	add	r12, r14
 828:	df 1c       	adc	r13, r15
 82a:	3b 87       	std	Y+11, r19	; 0x0b
 82c:	2a 87       	std	Y+10, r18	; 0x0a
 82e:	21 91       	ld	r18, Z+
 830:	31 91       	ld	r19, Z+
 832:	20 0f       	add	r18, r16
 834:	31 1f       	adc	r19, r17
 836:	aa 85       	ldd	r26, Y+10	; 0x0a
 838:	bb 85       	ldd	r27, Y+11	; 0x0b
 83a:	8d 91       	ld	r24, X+
 83c:	9d 91       	ld	r25, X+
 83e:	bb 87       	std	Y+11, r27	; 0x0b
 840:	aa 87       	std	Y+10, r26	; 0x0a
 842:	8e 0d       	add	r24, r14
 844:	9f 1d       	adc	r25, r15
 846:	b9 01       	movw	r22, r18
 848:	62 95       	swap	r22
 84a:	72 95       	swap	r23
 84c:	70 7f       	andi	r23, 0xF0	; 240
 84e:	76 27       	eor	r23, r22
 850:	60 7f       	andi	r22, 0xF0	; 240
 852:	76 27       	eor	r23, r22
 854:	62 57       	subi	r22, 0x72	; 114
 856:	7a 4f       	sbci	r23, 0xFA	; 250
 858:	68 0f       	add	r22, r24
 85a:	79 1f       	adc	r23, r25
 85c:	db 01       	movw	r26, r22
 85e:	4c 91       	ld	r20, X
 860:	4f 3f       	cpi	r20, 0xFF	; 255
 862:	09 f0       	breq	.+2      	; 0x866 <__stack+0x7>
 864:	5c c0       	rjmp	.+184    	; 0x91e <__stack+0xbf>
 866:	b9 01       	movw	r22, r18
 868:	62 95       	swap	r22
 86a:	72 95       	swap	r23
 86c:	70 7f       	andi	r23, 0xF0	; 240
 86e:	76 27       	eor	r23, r22
 870:	60 7f       	andi	r22, 0xF0	; 240
 872:	76 27       	eor	r23, r22
 874:	60 59       	subi	r22, 0x90	; 144
 876:	7f 4f       	sbci	r23, 0xFF	; 255
 878:	68 0f       	add	r22, r24
 87a:	79 1f       	adc	r23, r25
 87c:	db 01       	movw	r26, r22
 87e:	4c 91       	ld	r20, X
 880:	43 32       	cpi	r20, 0x23	; 35
 882:	09 f4       	brne	.+2      	; 0x886 <__stack+0x27>
 884:	4c c0       	rjmp	.+152    	; 0x91e <__stack+0xbf>
 886:	a9 01       	movw	r20, r18
 888:	4f 5f       	subi	r20, 0xFF	; 255
 88a:	5f 4f       	sbci	r21, 0xFF	; 255
 88c:	da 01       	movw	r26, r20
 88e:	a2 95       	swap	r26
 890:	b2 95       	swap	r27
 892:	b0 7f       	andi	r27, 0xF0	; 240
 894:	ba 27       	eor	r27, r26
 896:	a0 7f       	andi	r26, 0xF0	; 240
 898:	ba 27       	eor	r27, r26
 89a:	a0 59       	subi	r26, 0x90	; 144
 89c:	bf 4f       	sbci	r27, 0xFF	; 255
 89e:	bd 01       	movw	r22, r26
 8a0:	68 0f       	add	r22, r24
 8a2:	79 1f       	adc	r23, r25
 8a4:	db 01       	movw	r26, r22
 8a6:	6c 91       	ld	r22, X
 8a8:	63 32       	cpi	r22, 0x23	; 35
 8aa:	c9 f1       	breq	.+114    	; 0x91e <__stack+0xbf>
 8ac:	bc 01       	movw	r22, r24
 8ae:	6f 5f       	subi	r22, 0xFF	; 255
 8b0:	7f 4f       	sbci	r23, 0xFF	; 255
 8b2:	d9 01       	movw	r26, r18
 8b4:	a2 95       	swap	r26
 8b6:	b2 95       	swap	r27
 8b8:	b0 7f       	andi	r27, 0xF0	; 240
 8ba:	ba 27       	eor	r27, r26
 8bc:	a0 7f       	andi	r26, 0xF0	; 240
 8be:	ba 27       	eor	r27, r26
 8c0:	a0 59       	subi	r26, 0x90	; 144
 8c2:	bf 4f       	sbci	r27, 0xFF	; 255
 8c4:	a6 0f       	add	r26, r22
 8c6:	b7 1f       	adc	r27, r23
 8c8:	bc 91       	ld	r27, X
 8ca:	b3 32       	cpi	r27, 0x23	; 35
 8cc:	41 f1       	breq	.+80     	; 0x91e <__stack+0xbf>
 8ce:	42 95       	swap	r20
 8d0:	52 95       	swap	r21
 8d2:	50 7f       	andi	r21, 0xF0	; 240
 8d4:	54 27       	eor	r21, r20
 8d6:	40 7f       	andi	r20, 0xF0	; 240
 8d8:	54 27       	eor	r21, r20
 8da:	40 59       	subi	r20, 0x90	; 144
 8dc:	5f 4f       	sbci	r21, 0xFF	; 255
 8de:	46 0f       	add	r20, r22
 8e0:	57 1f       	adc	r21, r23
 8e2:	da 01       	movw	r26, r20
 8e4:	4c 91       	ld	r20, X
 8e6:	43 32       	cpi	r20, 0x23	; 35
 8e8:	d1 f0       	breq	.+52     	; 0x91e <__stack+0xbf>
 8ea:	22 95       	swap	r18
 8ec:	32 95       	swap	r19
 8ee:	30 7f       	andi	r19, 0xF0	; 240
 8f0:	32 27       	eor	r19, r18
 8f2:	20 7f       	andi	r18, 0xF0	; 240
 8f4:	32 27       	eor	r19, r18
 8f6:	b9 01       	movw	r22, r18
 8f8:	62 57       	subi	r22, 0x72	; 114
 8fa:	7a 4f       	sbci	r23, 0xFA	; 250
 8fc:	68 0f       	add	r22, r24
 8fe:	79 1f       	adc	r23, r25
 900:	d6 01       	movw	r26, r12
 902:	9c 91       	ld	r25, X
 904:	9f 5f       	subi	r25, 0xFF	; 255
 906:	db 01       	movw	r26, r22
 908:	9c 93       	st	X, r25
 90a:	b1 01       	movw	r22, r2
 90c:	62 57       	subi	r22, 0x72	; 114
 90e:	79 4f       	sbci	r23, 0xF9	; 249
 910:	82 2b       	or	r24, r18
 912:	db 01       	movw	r26, r22
 914:	8c 93       	st	X, r24
 916:	91 01       	movw	r18, r2
 918:	2f 5f       	subi	r18, 0xFF	; 255
 91a:	3f 4f       	sbci	r19, 0xFF	; 255
 91c:	19 01       	movw	r2, r18
 91e:	ea 15       	cp	r30, r10
 920:	fb 05       	cpc	r31, r11
 922:	09 f0       	breq	.+2      	; 0x926 <__stack+0xc7>
 924:	84 cf       	rjmp	.-248    	; 0x82e <ghostStrategyShortestPath+0x118>
 926:	42 14       	cp	r4, r2
 928:	53 04       	cpc	r5, r3
 92a:	0c f4       	brge	.+2      	; 0x92e <__stack+0xcf>
 92c:	57 cf       	rjmp	.-338    	; 0x7dc <ghostStrategyShortestPath+0xc6>
 92e:	30 92 89 05 	sts	0x0589, r3	; 0x800589 <backptr+0x1>
 932:	20 92 88 05 	sts	0x0588, r2	; 0x800588 <backptr>
 936:	50 92 81 05 	sts	0x0581, r5	; 0x800581 <frontptr+0x1>
 93a:	40 92 80 05 	sts	0x0580, r4	; 0x800580 <frontptr>
 93e:	8d 81       	ldd	r24, Y+5	; 0x05
 940:	9e 81       	ldd	r25, Y+6	; 0x06
 942:	88 0f       	add	r24, r24
 944:	99 1f       	adc	r25, r25
 946:	fc 01       	movw	r30, r24
 948:	e8 59       	subi	r30, 0x98	; 152
 94a:	ff 4f       	sbci	r31, 0xFF	; 255
 94c:	40 81       	ld	r20, Z
 94e:	51 81       	ldd	r21, Z+1	; 0x01
 950:	5e 83       	std	Y+6, r21	; 0x06
 952:	4d 83       	std	Y+5, r20	; 0x05
 954:	fc 01       	movw	r30, r24
 956:	ec 59       	subi	r30, 0x9C	; 156
 958:	ff 4f       	sbci	r31, 0xFF	; 255
 95a:	a0 81       	ld	r26, Z
 95c:	b1 81       	ldd	r27, Z+1	; 0x01
 95e:	40 e0       	ldi	r20, 0x00	; 0
 960:	50 e0       	ldi	r21, 0x00	; 0
 962:	80 e0       	ldi	r24, 0x00	; 0
 964:	90 e0       	ldi	r25, 0x00	; 0
 966:	6f ef       	ldi	r22, 0xFF	; 255
 968:	70 e0       	ldi	r23, 0x00	; 0
 96a:	09 81       	ldd	r16, Y+1	; 0x01
 96c:	1a 81       	ldd	r17, Y+2	; 0x02
 96e:	eb 80       	ldd	r14, Y+3	; 0x03
 970:	fc 80       	ldd	r15, Y+4	; 0x04
 972:	cd 80       	ldd	r12, Y+5	; 0x05
 974:	de 80       	ldd	r13, Y+6	; 0x06
 976:	5d 01       	movw	r10, r26
 978:	d8 01       	movw	r26, r16
 97a:	2d 91       	ld	r18, X+
 97c:	3d 91       	ld	r19, X+
 97e:	8d 01       	movw	r16, r26
 980:	d7 01       	movw	r26, r14
 982:	ed 91       	ld	r30, X+
 984:	fd 91       	ld	r31, X+
 986:	7d 01       	movw	r14, r26
 988:	2c 0d       	add	r18, r12
 98a:	3d 1d       	adc	r19, r13
 98c:	22 95       	swap	r18
 98e:	32 95       	swap	r19
 990:	30 7f       	andi	r19, 0xF0	; 240
 992:	32 27       	eor	r19, r18
 994:	20 7f       	andi	r18, 0xF0	; 240
 996:	32 27       	eor	r19, r18
 998:	22 57       	subi	r18, 0x72	; 114
 99a:	3a 4f       	sbci	r19, 0xFA	; 250
 99c:	2a 0d       	add	r18, r10
 99e:	3b 1d       	adc	r19, r11
 9a0:	e2 0f       	add	r30, r18
 9a2:	f3 1f       	adc	r31, r19
 9a4:	20 81       	ld	r18, Z
 9a6:	30 e0       	ldi	r19, 0x00	; 0
 9a8:	26 17       	cp	r18, r22
 9aa:	37 07       	cpc	r19, r23
 9ac:	1c f4       	brge	.+6      	; 0x9b4 <__stack+0x155>
 9ae:	84 2f       	mov	r24, r20
 9b0:	95 2f       	mov	r25, r21
 9b2:	b9 01       	movw	r22, r18
 9b4:	4f 5f       	subi	r20, 0xFF	; 255
 9b6:	5f 4f       	sbci	r21, 0xFF	; 255
 9b8:	44 30       	cpi	r20, 0x04	; 4
 9ba:	51 05       	cpc	r21, r1
 9bc:	e9 f6       	brne	.-70     	; 0x978 <__stack+0x119>
 9be:	2b 96       	adiw	r28, 0x0b	; 11
 9c0:	0f b6       	in	r0, 0x3f	; 63
 9c2:	f8 94       	cli
 9c4:	de bf       	out	0x3e, r29	; 62
 9c6:	0f be       	out	0x3f, r0	; 63
 9c8:	cd bf       	out	0x3d, r28	; 61
 9ca:	df 91       	pop	r29
 9cc:	cf 91       	pop	r28
 9ce:	1f 91       	pop	r17
 9d0:	0f 91       	pop	r16
 9d2:	ff 90       	pop	r15
 9d4:	ef 90       	pop	r14
 9d6:	df 90       	pop	r13
 9d8:	cf 90       	pop	r12
 9da:	bf 90       	pop	r11
 9dc:	af 90       	pop	r10
 9de:	9f 90       	pop	r9
 9e0:	8f 90       	pop	r8
 9e2:	7f 90       	pop	r7
 9e4:	6f 90       	pop	r6
 9e6:	5f 90       	pop	r5
 9e8:	4f 90       	pop	r4
 9ea:	3f 90       	pop	r3
 9ec:	2f 90       	pop	r2
 9ee:	08 95       	ret

000009f0 <displayStartScreen>:

void displayStartScreen()
{
 9f0:	ef 92       	push	r14
 9f2:	ff 92       	push	r15
 9f4:	0f 93       	push	r16
 9f6:	1f 93       	push	r17
 9f8:	cf 93       	push	r28
 9fa:	df 93       	push	r29
 9fc:	0f 2e       	mov	r0, r31
 9fe:	f0 e7       	ldi	r31, 0x70	; 112
 a00:	ef 2e       	mov	r14, r31
 a02:	f1 e0       	ldi	r31, 0x01	; 1
 a04:	ff 2e       	mov	r15, r31
 a06:	f0 2d       	mov	r31, r0
 a08:	d0 e0       	ldi	r29, 0x00	; 0
	for (int i=0; i<16; i++) {
		setBoardCommon(i);
 a0a:	8d 2f       	mov	r24, r29
 a0c:	0e 94 6e 00 	call	0xdc	; 0xdc <setBoardCommon>
 a10:	87 01       	movw	r16, r14
 a12:	c0 e0       	ldi	r28, 0x00	; 0
		for (int j=0; j<16; j++) {
			if (startScreen[i][j] == '.')			continue;
 a14:	f8 01       	movw	r30, r16
 a16:	81 91       	ld	r24, Z+
 a18:	8f 01       	movw	r16, r30
 a1a:	8e 32       	cpi	r24, 0x2E	; 46
 a1c:	59 f0       	breq	.+22     	; 0xa34 <displayStartScreen+0x44>
			else if (startScreen[i][j] == '#') {
 a1e:	83 32       	cpi	r24, 0x23	; 35
 a20:	19 f4       	brne	.+6      	; 0xa28 <displayStartScreen+0x38>
				setBoardRed(j);
 a22:	8c 2f       	mov	r24, r28
 a24:	0e 94 76 00 	call	0xec	; 0xec <setBoardRed>
	#else
		//round up by default
		__ticks_dc = (uint32_t)(ceil(fabs(__tmp)));
	#endif

	__builtin_avr_delay_cycles(__ticks_dc);
 a28:	f2 e4       	ldi	r31, 0x42	; 66
 a2a:	fa 95       	dec	r31
 a2c:	f1 f7       	brne	.-4      	; 0xa2a <displayStartScreen+0x3a>
 a2e:	00 c0       	rjmp	.+0      	; 0xa30 <displayStartScreen+0x40>
			}
			_delay_us(RENDER_DELAY_US);
			reset();
 a30:	0e 94 5c 00 	call	0xb8	; 0xb8 <reset>
 a34:	cf 5f       	subi	r28, 0xFF	; 255

void displayStartScreen()
{
	for (int i=0; i<16; i++) {
		setBoardCommon(i);
		for (int j=0; j<16; j++) {
 a36:	c0 31       	cpi	r28, 0x10	; 16
 a38:	69 f7       	brne	.-38     	; 0xa14 <displayStartScreen+0x24>
 a3a:	df 5f       	subi	r29, 0xFF	; 255
 a3c:	80 e1       	ldi	r24, 0x10	; 16
 a3e:	e8 0e       	add	r14, r24
 a40:	f1 1c       	adc	r15, r1
	return ghostStrategyShortestPath(id);
}

void displayStartScreen()
{
	for (int i=0; i<16; i++) {
 a42:	d0 31       	cpi	r29, 0x10	; 16
 a44:	11 f7       	brne	.-60     	; 0xa0a <displayStartScreen+0x1a>
			}
			_delay_us(RENDER_DELAY_US);
			reset();
		}
	}
}
 a46:	df 91       	pop	r29
 a48:	cf 91       	pop	r28
 a4a:	1f 91       	pop	r17
 a4c:	0f 91       	pop	r16
 a4e:	ff 90       	pop	r15
 a50:	ef 90       	pop	r14
 a52:	08 95       	ret

00000a54 <displayGameOverScreen>:

void displayGameOverScreen()
{
 a54:	ef 92       	push	r14
 a56:	ff 92       	push	r15
 a58:	0f 93       	push	r16
 a5a:	1f 93       	push	r17
 a5c:	cf 93       	push	r28
 a5e:	df 93       	push	r29
 a60:	0f 2e       	mov	r0, r31
 a62:	f0 e7       	ldi	r31, 0x70	; 112
 a64:	ef 2e       	mov	r14, r31
 a66:	f3 e0       	ldi	r31, 0x03	; 3
 a68:	ff 2e       	mov	r15, r31
 a6a:	f0 2d       	mov	r31, r0
 a6c:	d0 e0       	ldi	r29, 0x00	; 0
	for (int i=0; i<16; i++) {
		setBoardCommon(i);
 a6e:	8d 2f       	mov	r24, r29
 a70:	0e 94 6e 00 	call	0xdc	; 0xdc <setBoardCommon>
 a74:	87 01       	movw	r16, r14
 a76:	c0 e0       	ldi	r28, 0x00	; 0
		for (int j=0; j<16; j++) {
			if (endScreen[i][j] == '.')			continue;
 a78:	f8 01       	movw	r30, r16
 a7a:	81 91       	ld	r24, Z+
 a7c:	8f 01       	movw	r16, r30
 a7e:	8e 32       	cpi	r24, 0x2E	; 46
 a80:	59 f0       	breq	.+22     	; 0xa98 <displayGameOverScreen+0x44>
			else if (endScreen[i][j] == '#') {
 a82:	83 32       	cpi	r24, 0x23	; 35
 a84:	19 f4       	brne	.+6      	; 0xa8c <displayGameOverScreen+0x38>
				setBoardRed(j);
 a86:	8c 2f       	mov	r24, r28
 a88:	0e 94 76 00 	call	0xec	; 0xec <setBoardRed>
 a8c:	f2 e4       	ldi	r31, 0x42	; 66
 a8e:	fa 95       	dec	r31
 a90:	f1 f7       	brne	.-4      	; 0xa8e <displayGameOverScreen+0x3a>
 a92:	00 c0       	rjmp	.+0      	; 0xa94 <displayGameOverScreen+0x40>
			}
			_delay_us(RENDER_DELAY_US);
			reset();
 a94:	0e 94 5c 00 	call	0xb8	; 0xb8 <reset>
 a98:	cf 5f       	subi	r28, 0xFF	; 255

void displayGameOverScreen()
{
	for (int i=0; i<16; i++) {
		setBoardCommon(i);
		for (int j=0; j<16; j++) {
 a9a:	c0 31       	cpi	r28, 0x10	; 16
 a9c:	69 f7       	brne	.-38     	; 0xa78 <displayGameOverScreen+0x24>
 a9e:	df 5f       	subi	r29, 0xFF	; 255
 aa0:	80 e1       	ldi	r24, 0x10	; 16
 aa2:	e8 0e       	add	r14, r24
 aa4:	f1 1c       	adc	r15, r1
	}
}

void displayGameOverScreen()
{
	for (int i=0; i<16; i++) {
 aa6:	d0 31       	cpi	r29, 0x10	; 16
 aa8:	11 f7       	brne	.-60     	; 0xa6e <displayGameOverScreen+0x1a>
			}
			_delay_us(RENDER_DELAY_US);
			reset();
		}
	}
}
 aaa:	df 91       	pop	r29
 aac:	cf 91       	pop	r28
 aae:	1f 91       	pop	r17
 ab0:	0f 91       	pop	r16
 ab2:	ff 90       	pop	r15
 ab4:	ef 90       	pop	r14
 ab6:	08 95       	ret

00000ab8 <displayWinScreen>:


void displayWinScreen()
{
 ab8:	ef 92       	push	r14
 aba:	ff 92       	push	r15
 abc:	0f 93       	push	r16
 abe:	1f 93       	push	r17
 ac0:	cf 93       	push	r28
 ac2:	df 93       	push	r29
 ac4:	0f 2e       	mov	r0, r31
 ac6:	f0 e7       	ldi	r31, 0x70	; 112
 ac8:	ef 2e       	mov	r14, r31
 aca:	f2 e0       	ldi	r31, 0x02	; 2
 acc:	ff 2e       	mov	r15, r31
 ace:	f0 2d       	mov	r31, r0
 ad0:	d0 e0       	ldi	r29, 0x00	; 0
	for (int i=0; i<16; i++) {
		setBoardCommon(i);
 ad2:	8d 2f       	mov	r24, r29
 ad4:	0e 94 6e 00 	call	0xdc	; 0xdc <setBoardCommon>
 ad8:	87 01       	movw	r16, r14
 ada:	c0 e0       	ldi	r28, 0x00	; 0
		for (int j=0; j<16; j++) {
			if (winScreen[i][j] == '.')			continue;
 adc:	f8 01       	movw	r30, r16
 ade:	81 91       	ld	r24, Z+
 ae0:	8f 01       	movw	r16, r30
 ae2:	8e 32       	cpi	r24, 0x2E	; 46
 ae4:	59 f0       	breq	.+22     	; 0xafc <displayWinScreen+0x44>
			else if (winScreen[i][j] == '#') {
 ae6:	83 32       	cpi	r24, 0x23	; 35
 ae8:	19 f4       	brne	.+6      	; 0xaf0 <displayWinScreen+0x38>
				setBoardRed(j);
 aea:	8c 2f       	mov	r24, r28
 aec:	0e 94 76 00 	call	0xec	; 0xec <setBoardRed>
 af0:	f2 e4       	ldi	r31, 0x42	; 66
 af2:	fa 95       	dec	r31
 af4:	f1 f7       	brne	.-4      	; 0xaf2 <displayWinScreen+0x3a>
 af6:	00 c0       	rjmp	.+0      	; 0xaf8 <displayWinScreen+0x40>
			}
			_delay_us(RENDER_DELAY_US);
			reset();
 af8:	0e 94 5c 00 	call	0xb8	; 0xb8 <reset>
 afc:	cf 5f       	subi	r28, 0xFF	; 255

void displayWinScreen()
{
	for (int i=0; i<16; i++) {
		setBoardCommon(i);
		for (int j=0; j<16; j++) {
 afe:	c0 31       	cpi	r28, 0x10	; 16
 b00:	69 f7       	brne	.-38     	; 0xadc <displayWinScreen+0x24>
 b02:	df 5f       	subi	r29, 0xFF	; 255
 b04:	80 e1       	ldi	r24, 0x10	; 16
 b06:	e8 0e       	add	r14, r24
 b08:	f1 1c       	adc	r15, r1
}


void displayWinScreen()
{
	for (int i=0; i<16; i++) {
 b0a:	d0 31       	cpi	r29, 0x10	; 16
 b0c:	11 f7       	brne	.-60     	; 0xad2 <displayWinScreen+0x1a>
			}
			_delay_us(RENDER_DELAY_US);
			reset();
		}
	}
}
 b0e:	df 91       	pop	r29
 b10:	cf 91       	pop	r28
 b12:	1f 91       	pop	r17
 b14:	0f 91       	pop	r16
 b16:	ff 90       	pop	r15
 b18:	ef 90       	pop	r14
 b1a:	08 95       	ret

00000b1c <isFoodLeft>:


int isFoodLeft() {
	for (int i=0; i<16; i++) {
 b1c:	60 e0       	ldi	r22, 0x00	; 0
 b1e:	70 e0       	ldi	r23, 0x00	; 0
 b20:	1a c0       	rjmp	.+52     	; 0xb56 <isFoodLeft+0x3a>
		for (int j=0; j<16; j++) {
			if (background[i][j] == 'F')			return 1;
 b22:	81 e0       	ldi	r24, 0x01	; 1
 b24:	90 e0       	ldi	r25, 0x00	; 0
 b26:	ab 01       	movw	r20, r22
 b28:	42 95       	swap	r20
 b2a:	52 95       	swap	r21
 b2c:	50 7f       	andi	r21, 0xF0	; 240
 b2e:	54 27       	eor	r21, r20
 b30:	40 7f       	andi	r20, 0xF0	; 240
 b32:	54 27       	eor	r21, r20
 b34:	40 59       	subi	r20, 0x90	; 144
 b36:	5f 4f       	sbci	r21, 0xFF	; 255
 b38:	fa 01       	movw	r30, r20
 b3a:	e8 0f       	add	r30, r24
 b3c:	f9 1f       	adc	r31, r25
 b3e:	20 81       	ld	r18, Z
 b40:	26 34       	cpi	r18, 0x46	; 70
 b42:	c1 f0       	breq	.+48     	; 0xb74 <isFoodLeft+0x58>
}


int isFoodLeft() {
	for (int i=0; i<16; i++) {
		for (int j=0; j<16; j++) {
 b44:	01 96       	adiw	r24, 0x01	; 1
 b46:	80 31       	cpi	r24, 0x10	; 16
 b48:	91 05       	cpc	r25, r1
 b4a:	b1 f7       	brne	.-20     	; 0xb38 <isFoodLeft+0x1c>
	}
}


int isFoodLeft() {
	for (int i=0; i<16; i++) {
 b4c:	6f 5f       	subi	r22, 0xFF	; 255
 b4e:	7f 4f       	sbci	r23, 0xFF	; 255
 b50:	60 31       	cpi	r22, 0x10	; 16
 b52:	71 05       	cpc	r23, r1
 b54:	91 f0       	breq	.+36     	; 0xb7a <isFoodLeft+0x5e>
		for (int j=0; j<16; j++) {
			if (background[i][j] == 'F')			return 1;
 b56:	fb 01       	movw	r30, r22
 b58:	e2 95       	swap	r30
 b5a:	f2 95       	swap	r31
 b5c:	f0 7f       	andi	r31, 0xF0	; 240
 b5e:	fe 27       	eor	r31, r30
 b60:	e0 7f       	andi	r30, 0xF0	; 240
 b62:	fe 27       	eor	r31, r30
 b64:	e0 59       	subi	r30, 0x90	; 144
 b66:	ff 4f       	sbci	r31, 0xFF	; 255
 b68:	80 81       	ld	r24, Z
 b6a:	86 34       	cpi	r24, 0x46	; 70
 b6c:	d1 f6       	brne	.-76     	; 0xb22 <isFoodLeft+0x6>
 b6e:	81 e0       	ldi	r24, 0x01	; 1
 b70:	90 e0       	ldi	r25, 0x00	; 0
 b72:	08 95       	ret
 b74:	81 e0       	ldi	r24, 0x01	; 1
 b76:	90 e0       	ldi	r25, 0x00	; 0
 b78:	08 95       	ret
		}
	}
	return 0;
 b7a:	80 e0       	ldi	r24, 0x00	; 0
 b7c:	90 e0       	ldi	r25, 0x00	; 0
}
 b7e:	08 95       	ret

00000b80 <main>:


int main(void)
{
 b80:	0f 93       	push	r16
 b82:	1f 93       	push	r17
 b84:	cf 93       	push	r28
 b86:	df 93       	push	r29
	MCUCSR |= 1 << JTD;
 b88:	84 b7       	in	r24, 0x34	; 52
 b8a:	80 68       	ori	r24, 0x80	; 128
 b8c:	84 bf       	out	0x34, r24	; 52
	MCUCSR |= 1 << JTD;
 b8e:	84 b7       	in	r24, 0x34	; 52
 b90:	80 68       	ori	r24, 0x80	; 128
 b92:	84 bf       	out	0x34, r24	; 52

	ledMatrixInit();
 b94:	0e 94 60 00 	call	0xc0	; 0xc0 <ledMatrixInit>
	controlInit();
 b98:	0e 94 68 00 	call	0xd0	; 0xd0 <controlInit>
	buzzerInit();
 b9c:	0e 94 6c 00 	call	0xd8	; 0xd8 <buzzerInit>
	
	//Random Init
	srand(time(NULL));  
 ba0:	80 e0       	ldi	r24, 0x00	; 0
 ba2:	90 e0       	ldi	r25, 0x00	; 0
 ba4:	0e 94 49 00 	call	0x92	; 0x92 <time>
 ba8:	cb 01       	movw	r24, r22
 baa:	0e 94 87 06 	call	0xd0e	; 0xd0e <srand>
 bae:	c4 e6       	ldi	r28, 0x64	; 100
 bb0:	d0 e0       	ldi	r29, 0x00	; 0
    /* Replace with your application code */
	
	for (int i=0; i<FRAME_RATE*5; i++) {
		displayStartScreen();
 bb2:	0e 94 f8 04 	call	0x9f0	; 0x9f0 <displayStartScreen>
 bb6:	21 97       	sbiw	r28, 0x01	; 1
	
	//Random Init
	srand(time(NULL));  
    /* Replace with your application code */
	
	for (int i=0; i<FRAME_RATE*5; i++) {
 bb8:	e1 f7       	brne	.-8      	; 0xbb2 <main+0x32>
		for (int i=0; i<FRAME_RATE; i++) {
			displayBoard();
			buzz();
		}
		
		if (!isFoodLeft())	gameWin = 1;
 bba:	01 e0       	ldi	r16, 0x01	; 1
 bbc:	10 e0       	ldi	r17, 0x00	; 0
	for (int i=0; i<FRAME_RATE*5; i++) {
		displayStartScreen();
	}
	
	while(1) {
		int direction = PINB & 0x03;
 bbe:	86 b3       	in	r24, 0x16	; 22
		movePacman(direction);
 bc0:	83 70       	andi	r24, 0x03	; 3
 bc2:	90 e0       	ldi	r25, 0x00	; 0
 bc4:	0e 94 c3 01 	call	0x386	; 0x386 <movePacman>
		for (int i=0; i<GHOST_COUNT; i++) {
			if (ghostEnabled) {
 bc8:	80 91 8c 05 	lds	r24, 0x058C	; 0x80058c <ghostEnabled>
 bcc:	90 91 8d 05 	lds	r25, 0x058D	; 0x80058d <ghostEnabled+0x1>
 bd0:	89 2b       	or	r24, r25
 bd2:	49 f0       	breq	.+18     	; 0xbe6 <main+0x66>
	}
	return ans;
}

int ghostStrategy(int id) {
	return ghostStrategyShortestPath(id);
 bd4:	80 e0       	ldi	r24, 0x00	; 0
 bd6:	90 e0       	ldi	r25, 0x00	; 0
 bd8:	0e 94 8b 03 	call	0x716	; 0x716 <ghostStrategyShortestPath>
	while(1) {
		int direction = PINB & 0x03;
		movePacman(direction);
		for (int i=0; i<GHOST_COUNT; i++) {
			if (ghostEnabled) {
				moveGhost(i, ghostStrategy(i));
 bdc:	bc 01       	movw	r22, r24
 bde:	80 e0       	ldi	r24, 0x00	; 0
 be0:	90 e0       	ldi	r25, 0x00	; 0
 be2:	0e 94 10 03 	call	0x620	; 0x620 <moveGhost>
			}
		}
		
		makeBoard();
 be6:	0e 94 8b 00 	call	0x116	; 0x116 <makeBoard>
 bea:	c4 e1       	ldi	r28, 0x14	; 20
 bec:	d0 e0       	ldi	r29, 0x00	; 0
		for (int i=0; i<FRAME_RATE; i++) {
			displayBoard();
 bee:	0e 94 04 01 	call	0x208	; 0x208 <displayBoard>
			buzz();
 bf2:	0e 94 f6 02 	call	0x5ec	; 0x5ec <buzz>
 bf6:	21 97       	sbiw	r28, 0x01	; 1
				moveGhost(i, ghostStrategy(i));
			}
		}
		
		makeBoard();
		for (int i=0; i<FRAME_RATE; i++) {
 bf8:	d1 f7       	brne	.-12     	; 0xbee <main+0x6e>
			displayBoard();
			buzz();
		}
		
		if (!isFoodLeft())	gameWin = 1;
 bfa:	0e 94 8e 05 	call	0xb1c	; 0xb1c <isFoodLeft>
 bfe:	89 2b       	or	r24, r25
 c00:	21 f4       	brne	.+8      	; 0xc0a <main+0x8a>
 c02:	10 93 87 05 	sts	0x0587, r17	; 0x800587 <gameWin+0x1>
 c06:	00 93 86 05 	sts	0x0586, r16	; 0x800586 <gameWin>
		if(gameOver || gameWin)		break;
 c0a:	80 91 82 05 	lds	r24, 0x0582	; 0x800582 <gameOver>
 c0e:	90 91 83 05 	lds	r25, 0x0583	; 0x800583 <gameOver+0x1>
 c12:	89 2b       	or	r24, r25
 c14:	39 f0       	breq	.+14     	; 0xc24 <main+0xa4>
	}
	
	while(gameOver) {
 c16:	80 91 82 05 	lds	r24, 0x0582	; 0x800582 <gameOver>
 c1a:	90 91 83 05 	lds	r25, 0x0583	; 0x800583 <gameOver+0x1>
 c1e:	89 2b       	or	r24, r25
 c20:	41 f4       	brne	.+16     	; 0xc32 <main+0xb2>
 c22:	0f c0       	rjmp	.+30     	; 0xc42 <main+0xc2>
			displayBoard();
			buzz();
		}
		
		if (!isFoodLeft())	gameWin = 1;
		if(gameOver || gameWin)		break;
 c24:	80 91 86 05 	lds	r24, 0x0586	; 0x800586 <gameWin>
 c28:	90 91 87 05 	lds	r25, 0x0587	; 0x800587 <gameWin+0x1>
 c2c:	89 2b       	or	r24, r25
 c2e:	39 f2       	breq	.-114    	; 0xbbe <main+0x3e>
 c30:	f2 cf       	rjmp	.-28     	; 0xc16 <main+0x96>
	}
	
	while(gameOver) {
		displayGameOverScreen();
 c32:	0e 94 2a 05 	call	0xa54	; 0xa54 <displayGameOverScreen>
		
		if (!isFoodLeft())	gameWin = 1;
		if(gameOver || gameWin)		break;
	}
	
	while(gameOver) {
 c36:	80 91 82 05 	lds	r24, 0x0582	; 0x800582 <gameOver>
 c3a:	90 91 83 05 	lds	r25, 0x0583	; 0x800583 <gameOver+0x1>
 c3e:	89 2b       	or	r24, r25
 c40:	c1 f7       	brne	.-16     	; 0xc32 <main+0xb2>
		displayGameOverScreen();
	}
	
	while(gameWin) {
 c42:	80 91 86 05 	lds	r24, 0x0586	; 0x800586 <gameWin>
 c46:	90 91 87 05 	lds	r25, 0x0587	; 0x800587 <gameWin+0x1>
 c4a:	89 2b       	or	r24, r25
 c4c:	41 f0       	breq	.+16     	; 0xc5e <main+0xde>
		displayWinScreen();
 c4e:	0e 94 5c 05 	call	0xab8	; 0xab8 <displayWinScreen>
	
	while(gameOver) {
		displayGameOverScreen();
	}
	
	while(gameWin) {
 c52:	80 91 86 05 	lds	r24, 0x0586	; 0x800586 <gameWin>
 c56:	90 91 87 05 	lds	r25, 0x0587	; 0x800587 <gameWin+0x1>
 c5a:	89 2b       	or	r24, r25
 c5c:	c1 f7       	brne	.-16     	; 0xc4e <main+0xce>
		displayWinScreen();
	}	
}
 c5e:	80 e0       	ldi	r24, 0x00	; 0
 c60:	90 e0       	ldi	r25, 0x00	; 0
 c62:	df 91       	pop	r29
 c64:	cf 91       	pop	r28
 c66:	1f 91       	pop	r17
 c68:	0f 91       	pop	r16
 c6a:	08 95       	ret

00000c6c <do_rand>:
 c6c:	8f 92       	push	r8
 c6e:	9f 92       	push	r9
 c70:	af 92       	push	r10
 c72:	bf 92       	push	r11
 c74:	cf 92       	push	r12
 c76:	df 92       	push	r13
 c78:	ef 92       	push	r14
 c7a:	ff 92       	push	r15
 c7c:	cf 93       	push	r28
 c7e:	df 93       	push	r29
 c80:	ec 01       	movw	r28, r24
 c82:	68 81       	ld	r22, Y
 c84:	79 81       	ldd	r23, Y+1	; 0x01
 c86:	8a 81       	ldd	r24, Y+2	; 0x02
 c88:	9b 81       	ldd	r25, Y+3	; 0x03
 c8a:	61 15       	cp	r22, r1
 c8c:	71 05       	cpc	r23, r1
 c8e:	81 05       	cpc	r24, r1
 c90:	91 05       	cpc	r25, r1
 c92:	21 f4       	brne	.+8      	; 0xc9c <do_rand+0x30>
 c94:	64 e2       	ldi	r22, 0x24	; 36
 c96:	79 ed       	ldi	r23, 0xD9	; 217
 c98:	8b e5       	ldi	r24, 0x5B	; 91
 c9a:	97 e0       	ldi	r25, 0x07	; 7
 c9c:	2d e1       	ldi	r18, 0x1D	; 29
 c9e:	33 ef       	ldi	r19, 0xF3	; 243
 ca0:	41 e0       	ldi	r20, 0x01	; 1
 ca2:	50 e0       	ldi	r21, 0x00	; 0
 ca4:	0e 94 92 06 	call	0xd24	; 0xd24 <__divmodsi4>
 ca8:	49 01       	movw	r8, r18
 caa:	5a 01       	movw	r10, r20
 cac:	9b 01       	movw	r18, r22
 cae:	ac 01       	movw	r20, r24
 cb0:	a7 ea       	ldi	r26, 0xA7	; 167
 cb2:	b1 e4       	ldi	r27, 0x41	; 65
 cb4:	0e 94 b1 06 	call	0xd62	; 0xd62 <__muluhisi3>
 cb8:	6b 01       	movw	r12, r22
 cba:	7c 01       	movw	r14, r24
 cbc:	ac ee       	ldi	r26, 0xEC	; 236
 cbe:	b4 ef       	ldi	r27, 0xF4	; 244
 cc0:	a5 01       	movw	r20, r10
 cc2:	94 01       	movw	r18, r8
 cc4:	0e 94 bf 06 	call	0xd7e	; 0xd7e <__mulohisi3>
 cc8:	dc 01       	movw	r26, r24
 cca:	cb 01       	movw	r24, r22
 ccc:	8c 0d       	add	r24, r12
 cce:	9d 1d       	adc	r25, r13
 cd0:	ae 1d       	adc	r26, r14
 cd2:	bf 1d       	adc	r27, r15
 cd4:	b7 ff       	sbrs	r27, 7
 cd6:	03 c0       	rjmp	.+6      	; 0xcde <do_rand+0x72>
 cd8:	01 97       	sbiw	r24, 0x01	; 1
 cda:	a1 09       	sbc	r26, r1
 cdc:	b0 48       	sbci	r27, 0x80	; 128
 cde:	88 83       	st	Y, r24
 ce0:	99 83       	std	Y+1, r25	; 0x01
 ce2:	aa 83       	std	Y+2, r26	; 0x02
 ce4:	bb 83       	std	Y+3, r27	; 0x03
 ce6:	9f 77       	andi	r25, 0x7F	; 127
 ce8:	df 91       	pop	r29
 cea:	cf 91       	pop	r28
 cec:	ff 90       	pop	r15
 cee:	ef 90       	pop	r14
 cf0:	df 90       	pop	r13
 cf2:	cf 90       	pop	r12
 cf4:	bf 90       	pop	r11
 cf6:	af 90       	pop	r10
 cf8:	9f 90       	pop	r9
 cfa:	8f 90       	pop	r8
 cfc:	08 95       	ret

00000cfe <rand_r>:
 cfe:	0e 94 36 06 	call	0xc6c	; 0xc6c <do_rand>
 d02:	08 95       	ret

00000d04 <rand>:
 d04:	80 e6       	ldi	r24, 0x60	; 96
 d06:	90 e0       	ldi	r25, 0x00	; 0
 d08:	0e 94 36 06 	call	0xc6c	; 0xc6c <do_rand>
 d0c:	08 95       	ret

00000d0e <srand>:
 d0e:	a0 e0       	ldi	r26, 0x00	; 0
 d10:	b0 e0       	ldi	r27, 0x00	; 0
 d12:	80 93 60 00 	sts	0x0060, r24	; 0x800060 <__data_start>
 d16:	90 93 61 00 	sts	0x0061, r25	; 0x800061 <__data_start+0x1>
 d1a:	a0 93 62 00 	sts	0x0062, r26	; 0x800062 <__data_start+0x2>
 d1e:	b0 93 63 00 	sts	0x0063, r27	; 0x800063 <__data_start+0x3>
 d22:	08 95       	ret

00000d24 <__divmodsi4>:
 d24:	05 2e       	mov	r0, r21
 d26:	97 fb       	bst	r25, 7
 d28:	1e f4       	brtc	.+6      	; 0xd30 <__divmodsi4+0xc>
 d2a:	00 94       	com	r0
 d2c:	0e 94 a9 06 	call	0xd52	; 0xd52 <__negsi2>
 d30:	57 fd       	sbrc	r21, 7
 d32:	07 d0       	rcall	.+14     	; 0xd42 <__divmodsi4_neg2>
 d34:	0e 94 c4 06 	call	0xd88	; 0xd88 <__udivmodsi4>
 d38:	07 fc       	sbrc	r0, 7
 d3a:	03 d0       	rcall	.+6      	; 0xd42 <__divmodsi4_neg2>
 d3c:	4e f4       	brtc	.+18     	; 0xd50 <__divmodsi4_exit>
 d3e:	0c 94 a9 06 	jmp	0xd52	; 0xd52 <__negsi2>

00000d42 <__divmodsi4_neg2>:
 d42:	50 95       	com	r21
 d44:	40 95       	com	r20
 d46:	30 95       	com	r19
 d48:	21 95       	neg	r18
 d4a:	3f 4f       	sbci	r19, 0xFF	; 255
 d4c:	4f 4f       	sbci	r20, 0xFF	; 255
 d4e:	5f 4f       	sbci	r21, 0xFF	; 255

00000d50 <__divmodsi4_exit>:
 d50:	08 95       	ret

00000d52 <__negsi2>:
 d52:	90 95       	com	r25
 d54:	80 95       	com	r24
 d56:	70 95       	com	r23
 d58:	61 95       	neg	r22
 d5a:	7f 4f       	sbci	r23, 0xFF	; 255
 d5c:	8f 4f       	sbci	r24, 0xFF	; 255
 d5e:	9f 4f       	sbci	r25, 0xFF	; 255
 d60:	08 95       	ret

00000d62 <__muluhisi3>:
 d62:	0e 94 e6 06 	call	0xdcc	; 0xdcc <__umulhisi3>
 d66:	a5 9f       	mul	r26, r21
 d68:	90 0d       	add	r25, r0
 d6a:	b4 9f       	mul	r27, r20
 d6c:	90 0d       	add	r25, r0
 d6e:	a4 9f       	mul	r26, r20
 d70:	80 0d       	add	r24, r0
 d72:	91 1d       	adc	r25, r1
 d74:	11 24       	eor	r1, r1
 d76:	08 95       	ret

00000d78 <__mulshisi3>:
 d78:	b7 ff       	sbrs	r27, 7
 d7a:	0c 94 b1 06 	jmp	0xd62	; 0xd62 <__muluhisi3>

00000d7e <__mulohisi3>:
 d7e:	0e 94 b1 06 	call	0xd62	; 0xd62 <__muluhisi3>
 d82:	82 1b       	sub	r24, r18
 d84:	93 0b       	sbc	r25, r19
 d86:	08 95       	ret

00000d88 <__udivmodsi4>:
 d88:	a1 e2       	ldi	r26, 0x21	; 33
 d8a:	1a 2e       	mov	r1, r26
 d8c:	aa 1b       	sub	r26, r26
 d8e:	bb 1b       	sub	r27, r27
 d90:	fd 01       	movw	r30, r26
 d92:	0d c0       	rjmp	.+26     	; 0xdae <__udivmodsi4_ep>

00000d94 <__udivmodsi4_loop>:
 d94:	aa 1f       	adc	r26, r26
 d96:	bb 1f       	adc	r27, r27
 d98:	ee 1f       	adc	r30, r30
 d9a:	ff 1f       	adc	r31, r31
 d9c:	a2 17       	cp	r26, r18
 d9e:	b3 07       	cpc	r27, r19
 da0:	e4 07       	cpc	r30, r20
 da2:	f5 07       	cpc	r31, r21
 da4:	20 f0       	brcs	.+8      	; 0xdae <__udivmodsi4_ep>
 da6:	a2 1b       	sub	r26, r18
 da8:	b3 0b       	sbc	r27, r19
 daa:	e4 0b       	sbc	r30, r20
 dac:	f5 0b       	sbc	r31, r21

00000dae <__udivmodsi4_ep>:
 dae:	66 1f       	adc	r22, r22
 db0:	77 1f       	adc	r23, r23
 db2:	88 1f       	adc	r24, r24
 db4:	99 1f       	adc	r25, r25
 db6:	1a 94       	dec	r1
 db8:	69 f7       	brne	.-38     	; 0xd94 <__udivmodsi4_loop>
 dba:	60 95       	com	r22
 dbc:	70 95       	com	r23
 dbe:	80 95       	com	r24
 dc0:	90 95       	com	r25
 dc2:	9b 01       	movw	r18, r22
 dc4:	ac 01       	movw	r20, r24
 dc6:	bd 01       	movw	r22, r26
 dc8:	cf 01       	movw	r24, r30
 dca:	08 95       	ret

00000dcc <__umulhisi3>:
 dcc:	a2 9f       	mul	r26, r18
 dce:	b0 01       	movw	r22, r0
 dd0:	b3 9f       	mul	r27, r19
 dd2:	c0 01       	movw	r24, r0
 dd4:	a3 9f       	mul	r26, r19
 dd6:	70 0d       	add	r23, r0
 dd8:	81 1d       	adc	r24, r1
 dda:	11 24       	eor	r1, r1
 ddc:	91 1d       	adc	r25, r1
 dde:	b2 9f       	mul	r27, r18
 de0:	70 0d       	add	r23, r0
 de2:	81 1d       	adc	r24, r1
 de4:	11 24       	eor	r1, r1
 de6:	91 1d       	adc	r25, r1
 de8:	08 95       	ret

00000dea <_exit>:
 dea:	f8 94       	cli

00000dec <__stop_program>:
 dec:	ff cf       	rjmp	.-2      	; 0xdec <__stop_program>
